   1              		.syntax unified
   2              		.cpu cortex-a8
   3              		.eabi_attribute 27, 3
   4              		.eabi_attribute 28, 1
   5              		.fpu vfpv3-d16
   6              		.eabi_attribute 20, 1
   7              		.eabi_attribute 21, 1
   8              		.eabi_attribute 23, 3
   9              		.eabi_attribute 24, 1
  10              		.eabi_attribute 25, 1
  11              		.eabi_attribute 26, 2
  12              		.eabi_attribute 30, 6
  13              		.eabi_attribute 34, 1
  14              		.eabi_attribute 18, 4
  15              		.thumb
  16              		.file	"appXynthDemo.c"
  17              		.text
  18              	.Ltext0:
  19              		.cfi_sections	.debug_frame
  20              		.comm	gpio_fd,4,4
  21              		.section	.rodata
  22              		.align	2
  23              	.LC0:
  24 0000 43616E6E 		.ascii	"Cannot open GPIO to export it\000"
  24      6F74206F 
  24      70656E20 
  24      4750494F 
  24      20746F20 
  25 001e 0000     		.align	2
  26              	.LC1:
  27 0020 43616E6E 		.ascii	"Cannot open GPIO direction\000"
  27      6F74206F 
  27      70656E20 
  27      4750494F 
  27      20646972 
  28 003b 00       		.align	2
  29              	.LC2:
  30 003c 43616E6E 		.ascii	"Cannot open GPIO value for %s\012\000"
  30      6F74206F 
  30      70656E20 
  30      4750494F 
  30      2076616C 
  31 005b 00       		.align	2
  32              	.LC3:
  33 005c 43616E6E 		.ascii	"Cannot open GPIO to unexport it\000"
  33      6F74206F 
  33      70656E20 
  33      4750494F 
  33      20746F20 
  34              		.text
  35              		.align	2
  36              		.global	sysfs_gpio_handler
  37              		.thumb
  38              		.thumb_func
  40              	sysfs_gpio_handler:
  41              	.LFB2:
  42              		.file 1 "../app/appXynthDemo.c"
   1:../app/appXynthDemo.c **** /*
   2:../app/appXynthDemo.c ****  ******************************************************************************
   3:../app/appXynthDemo.c ****  * \brief   Embedded Linux Xynth Example
   4:../app/appXynthDemo.c ****  *	    Graphical control of the LED-1
   5:../app/appXynthDemo.c ****  *	    Only a minimal error handling is implemented.
   6:../app/appXynthDemo.c ****  * \file    appXynthLedOnOff.c
   7:../app/appXynthDemo.c ****  * \version 1.0
   8:../app/appXynthDemo.c ****  * \date    28.10.2013
   9:../app/appXynthDemo.c ****  * \author  Martin Aebersold
  10:../app/appXynthDemo.c ****  *
  11:../app/appXynthDemo.c ****  * \remark  Last Modifications:
  12:../app/appXynthDemo.c ****  * \remark  V1.0, AOM1, 28.10.2013
  13:../app/appXynthDemo.c ****  ******************************************************************************
  14:../app/appXynthDemo.c ****  */
  15:../app/appXynthDemo.c **** 
  16:../app/appXynthDemo.c **** #include <stdio.h>
  17:../app/appXynthDemo.c **** #include <stdlib.h>
  18:../app/appXynthDemo.c **** #include <unistd.h>
  19:../app/appXynthDemo.c **** #include <fcntl.h>
  20:../app/appXynthDemo.c **** #include <time.h>
  21:../app/appXynthDemo.c **** #include <signal.h>
  22:../app/appXynthDemo.c **** #include <string.h>
  23:../app/appXynthDemo.c **** #include <stdbool.h>
  24:../app/appXynthDemo.c **** #include <errno.h>
  25:../app/appXynthDemo.c **** 
  26:../app/appXynthDemo.c **** #include <linux/input.h>
  27:../app/appXynthDemo.c **** 
  28:../app/appXynthDemo.c **** #include <sys/types.h>
  29:../app/appXynthDemo.c **** #include <sys/stat.h>
  30:../app/appXynthDemo.c **** 
  31:../app/appXynthDemo.c **** 
  32:../app/appXynthDemo.c **** #include "xynth_.h"
  33:../app/appXynthDemo.c **** 
  34:../app/appXynthDemo.c **** /* Define some useful constants */
  35:../app/appXynthDemo.c **** #define	GPIO_SYSFS_EXPORT	0
  36:../app/appXynthDemo.c **** #define GPIO_SYSFS_DIRECTION	1
  37:../app/appXynthDemo.c **** #define GPIO_SYSFS_VALUE	2
  38:../app/appXynthDemo.c **** #define	GPIO_SYSFS_UNEXPORT	3
  39:../app/appXynthDemo.c **** 
  40:../app/appXynthDemo.c **** /* Function prototype */
  41:../app/appXynthDemo.c **** void signal_callback_handler(int signum);
  42:../app/appXynthDemo.c **** 
  43:../app/appXynthDemo.c **** /* Variables */
  44:../app/appXynthDemo.c **** typedef struct img_data_s
  45:../app/appXynthDemo.c ****  {
  46:../app/appXynthDemo.c ****   int imgf;       /* full screen */
  47:../app/appXynthDemo.c ****   int imgp;       /* image pos   */
  48:../app/appXynthDemo.c ****   int imgs;       /* scale image */
  49:../app/appXynthDemo.c ****   s_list_t *imgl; /* images list */
  50:../app/appXynthDemo.c ****  } img_data_t;
  51:../app/appXynthDemo.c **** 
  52:../app/appXynthDemo.c **** int gpio_fd;
  53:../app/appXynthDemo.c **** 
  54:../app/appXynthDemo.c **** /*
  55:../app/appXynthDemo.c ****  ***************************************************************************
  56:../app/appXynthDemo.c ****  * Syfs gpio handler
  57:../app/appXynthDemo.c ****  ***************************************************************************
  58:../app/appXynthDemo.c ****  */
  59:../app/appXynthDemo.c **** 
  60:../app/appXynthDemo.c **** int sysfs_gpio_handler(char str[], char gpio[], char function)
  61:../app/appXynthDemo.c ****  {
  43              		.loc 1 61 0
  44              		.cfi_startproc
  45              		@ args = 0, pretend = 0, frame = 16
  46              		@ frame_needed = 1, uses_anonymous_args = 0
  47 0000 90B5     		push	{r4, r7, lr}
  48              	.LCFI0:
  49              		.cfi_def_cfa_offset 12
  50              		.cfi_offset 4, -12
  51              		.cfi_offset 7, -8
  52              		.cfi_offset 14, -4
  53 0002 85B0     		sub	sp, sp, #20
  54              	.LCFI1:
  55              		.cfi_def_cfa_offset 32
  56 0004 00AF     		add	r7, sp, #0
  57              	.LCFI2:
  58              		.cfi_def_cfa_register 7
  59 0006 F860     		str	r0, [r7, #12]
  60 0008 B960     		str	r1, [r7, #8]
  61 000a 1346     		mov	r3, r2
  62 000c FB71     		strb	r3, [r7, #7]
  62:../app/appXynthDemo.c ****   switch (function)
  63              		.loc 1 62 0
  64 000e FB79     		ldrb	r3, [r7, #7]	@ zero_extendqisi2
  65 0010 032B     		cmp	r3, #3
  66 0012 00F2D480 		bhi	.L2
  67 0016 01A2     		adr	r2, .L4
  68 0018 52F823F0 		ldr	pc, [r2, r3, lsl #2]
  69              		.p2align 2
  70              	.L4:
  71 001c 2D000000 		.word	.L3+1
  72 0020 91000000 		.word	.L5+1
  73 0024 F5000000 		.word	.L6+1
  74 0028 5B010000 		.word	.L7+1
  75              	.L3:
  63:../app/appXynthDemo.c ****    {
  64:../app/appXynthDemo.c ****     /* Open gpio export file descriptor */
  65:../app/appXynthDemo.c ****     case GPIO_SYSFS_EXPORT:
  66:../app/appXynthDemo.c ****      gpio_fd = open(str, O_WRONLY);
  76              		.loc 1 66 0
  77 002c F868     		ldr	r0, [r7, #12]
  78 002e 0121     		movs	r1, #1
  79 0030 FFF7FEFF 		bl	open
  80 0034 0246     		mov	r2, r0
  81 0036 40F20003 		movw	r3, #:lower16:gpio_fd
  82 003a C0F20003 		movt	r3, #:upper16:gpio_fd
  83 003e 1A60     		str	r2, [r3]
  67:../app/appXynthDemo.c ****      if (gpio_fd  < 0)
  84              		.loc 1 67 0
  85 0040 40F20003 		movw	r3, #:lower16:gpio_fd
  86 0044 C0F20003 		movt	r3, #:upper16:gpio_fd
  87 0048 1B68     		ldr	r3, [r3]
  88 004a 002B     		cmp	r3, #0
  89 004c 08DA     		bge	.L8
  68:../app/appXynthDemo.c ****       {
  69:../app/appXynthDemo.c ****        printf("Cannot open GPIO to export it\n");
  90              		.loc 1 69 0
  91 004e 40F20000 		movw	r0, #:lower16:.LC0
  92 0052 C0F20000 		movt	r0, #:upper16:.LC0
  93 0056 FFF7FEFF 		bl	puts
  70:../app/appXynthDemo.c ****        return -1;
  94              		.loc 1 70 0
  95 005a 4FF0FF33 		mov	r3, #-1
  96 005e AFE0     		b	.L9
  97              	.L8:
  71:../app/appXynthDemo.c ****       }
  72:../app/appXynthDemo.c ****      /* Write the gpio you want to export and close the export interface. */
  73:../app/appXynthDemo.c ****      write(gpio_fd , gpio, strlen(gpio)+1);
  98              		.loc 1 73 0
  99 0060 40F20003 		movw	r3, #:lower16:gpio_fd
 100 0064 C0F20003 		movt	r3, #:upper16:gpio_fd
 101 0068 1C68     		ldr	r4, [r3]
 102 006a B868     		ldr	r0, [r7, #8]
 103 006c FFF7FEFF 		bl	strlen
 104 0070 0346     		mov	r3, r0
 105 0072 0133     		adds	r3, r3, #1
 106 0074 2046     		mov	r0, r4
 107 0076 B968     		ldr	r1, [r7, #8]
 108 0078 1A46     		mov	r2, r3
 109 007a FFF7FEFF 		bl	write
  74:../app/appXynthDemo.c ****      close(gpio_fd);
 110              		.loc 1 74 0
 111 007e 40F20003 		movw	r3, #:lower16:gpio_fd
 112 0082 C0F20003 		movt	r3, #:upper16:gpio_fd
 113 0086 1B68     		ldr	r3, [r3]
 114 0088 1846     		mov	r0, r3
 115 008a FFF7FEFF 		bl	close
  75:../app/appXynthDemo.c ****     break;
 116              		.loc 1 75 0
 117 008e 96E0     		b	.L2
 118              	.L5:
  76:../app/appXynthDemo.c **** 
  77:../app/appXynthDemo.c ****     /* Open gpio direction file descriptor */
  78:../app/appXynthDemo.c ****     case GPIO_SYSFS_DIRECTION:
  79:../app/appXynthDemo.c ****      gpio_fd = open(str, O_RDWR);
 119              		.loc 1 79 0
 120 0090 F868     		ldr	r0, [r7, #12]
 121 0092 0221     		movs	r1, #2
 122 0094 FFF7FEFF 		bl	open
 123 0098 0246     		mov	r2, r0
 124 009a 40F20003 		movw	r3, #:lower16:gpio_fd
 125 009e C0F20003 		movt	r3, #:upper16:gpio_fd
 126 00a2 1A60     		str	r2, [r3]
  80:../app/appXynthDemo.c ****      if (gpio_fd  < 0)
 127              		.loc 1 80 0
 128 00a4 40F20003 		movw	r3, #:lower16:gpio_fd
 129 00a8 C0F20003 		movt	r3, #:upper16:gpio_fd
 130 00ac 1B68     		ldr	r3, [r3]
 131 00ae 002B     		cmp	r3, #0
 132 00b0 08DA     		bge	.L10
  81:../app/appXynthDemo.c ****       {
  82:../app/appXynthDemo.c ****        printf("Cannot open GPIO direction\n");
 133              		.loc 1 82 0
 134 00b2 40F20000 		movw	r0, #:lower16:.LC1
 135 00b6 C0F20000 		movt	r0, #:upper16:.LC1
 136 00ba FFF7FEFF 		bl	puts
  83:../app/appXynthDemo.c ****        return -1;
 137              		.loc 1 83 0
 138 00be 4FF0FF33 		mov	r3, #-1
 139 00c2 7DE0     		b	.L9
 140              	.L10:
  84:../app/appXynthDemo.c ****       }
  85:../app/appXynthDemo.c ****      /* Write the gpio direction and close the direction interface. */
  86:../app/appXynthDemo.c ****      write(gpio_fd, gpio, strlen(gpio)+1);
 141              		.loc 1 86 0
 142 00c4 40F20003 		movw	r3, #:lower16:gpio_fd
 143 00c8 C0F20003 		movt	r3, #:upper16:gpio_fd
 144 00cc 1C68     		ldr	r4, [r3]
 145 00ce B868     		ldr	r0, [r7, #8]
 146 00d0 FFF7FEFF 		bl	strlen
 147 00d4 0346     		mov	r3, r0
 148 00d6 0133     		adds	r3, r3, #1
 149 00d8 2046     		mov	r0, r4
 150 00da B968     		ldr	r1, [r7, #8]
 151 00dc 1A46     		mov	r2, r3
 152 00de FFF7FEFF 		bl	write
  87:../app/appXynthDemo.c ****      close(gpio_fd);
 153              		.loc 1 87 0
 154 00e2 40F20003 		movw	r3, #:lower16:gpio_fd
 155 00e6 C0F20003 		movt	r3, #:upper16:gpio_fd
 156 00ea 1B68     		ldr	r3, [r3]
 157 00ec 1846     		mov	r0, r3
 158 00ee FFF7FEFF 		bl	close
  88:../app/appXynthDemo.c ****     break;
 159              		.loc 1 88 0
 160 00f2 64E0     		b	.L2
 161              	.L6:
  89:../app/appXynthDemo.c **** 
  90:../app/appXynthDemo.c ****     /* Open gpio value file descriptor */
  91:../app/appXynthDemo.c ****     case GPIO_SYSFS_VALUE:
  92:../app/appXynthDemo.c ****      gpio_fd = open(str, O_RDWR);
 162              		.loc 1 92 0
 163 00f4 F868     		ldr	r0, [r7, #12]
 164 00f6 0221     		movs	r1, #2
 165 00f8 FFF7FEFF 		bl	open
 166 00fc 0246     		mov	r2, r0
 167 00fe 40F20003 		movw	r3, #:lower16:gpio_fd
 168 0102 C0F20003 		movt	r3, #:upper16:gpio_fd
 169 0106 1A60     		str	r2, [r3]
  93:../app/appXynthDemo.c ****      if (gpio_fd < 0)
 170              		.loc 1 93 0
 171 0108 40F20003 		movw	r3, #:lower16:gpio_fd
 172 010c C0F20003 		movt	r3, #:upper16:gpio_fd
 173 0110 1B68     		ldr	r3, [r3]
 174 0112 002B     		cmp	r3, #0
 175 0114 09DA     		bge	.L11
  94:../app/appXynthDemo.c ****       {
  95:../app/appXynthDemo.c ****        printf("Cannot open GPIO value for %s\n", str);
 176              		.loc 1 95 0
 177 0116 40F20000 		movw	r0, #:lower16:.LC2
 178 011a C0F20000 		movt	r0, #:upper16:.LC2
 179 011e F968     		ldr	r1, [r7, #12]
 180 0120 FFF7FEFF 		bl	printf
  96:../app/appXynthDemo.c ****        return -1;
 181              		.loc 1 96 0
 182 0124 4FF0FF33 		mov	r3, #-1
 183 0128 4AE0     		b	.L9
 184              	.L11:
  97:../app/appXynthDemo.c ****       }
  98:../app/appXynthDemo.c ****      /* Write the gpio vale and close the value interface. */
  99:../app/appXynthDemo.c ****      write(gpio_fd, gpio, strlen(gpio)+1);
 185              		.loc 1 99 0
 186 012a 40F20003 		movw	r3, #:lower16:gpio_fd
 187 012e C0F20003 		movt	r3, #:upper16:gpio_fd
 188 0132 1C68     		ldr	r4, [r3]
 189 0134 B868     		ldr	r0, [r7, #8]
 190 0136 FFF7FEFF 		bl	strlen
 191 013a 0346     		mov	r3, r0
 192 013c 0133     		adds	r3, r3, #1
 193 013e 2046     		mov	r0, r4
 194 0140 B968     		ldr	r1, [r7, #8]
 195 0142 1A46     		mov	r2, r3
 196 0144 FFF7FEFF 		bl	write
 100:../app/appXynthDemo.c ****      close(gpio_fd);
 197              		.loc 1 100 0
 198 0148 40F20003 		movw	r3, #:lower16:gpio_fd
 199 014c C0F20003 		movt	r3, #:upper16:gpio_fd
 200 0150 1B68     		ldr	r3, [r3]
 201 0152 1846     		mov	r0, r3
 202 0154 FFF7FEFF 		bl	close
 101:../app/appXynthDemo.c ****     break;
 203              		.loc 1 101 0
 204 0158 31E0     		b	.L2
 205              	.L7:
 102:../app/appXynthDemo.c **** 
 103:../app/appXynthDemo.c ****     /* Open gpio unexport file descriptor */
 104:../app/appXynthDemo.c ****     case GPIO_SYSFS_UNEXPORT:
 105:../app/appXynthDemo.c ****      gpio_fd = open(str, O_WRONLY);
 206              		.loc 1 105 0
 207 015a F868     		ldr	r0, [r7, #12]
 208 015c 0121     		movs	r1, #1
 209 015e FFF7FEFF 		bl	open
 210 0162 0246     		mov	r2, r0
 211 0164 40F20003 		movw	r3, #:lower16:gpio_fd
 212 0168 C0F20003 		movt	r3, #:upper16:gpio_fd
 213 016c 1A60     		str	r2, [r3]
 106:../app/appXynthDemo.c ****      if (gpio_fd  < 0)
 214              		.loc 1 106 0
 215 016e 40F20003 		movw	r3, #:lower16:gpio_fd
 216 0172 C0F20003 		movt	r3, #:upper16:gpio_fd
 217 0176 1B68     		ldr	r3, [r3]
 218 0178 002B     		cmp	r3, #0
 219 017a 08DA     		bge	.L12
 107:../app/appXynthDemo.c ****       {
 108:../app/appXynthDemo.c ****        printf("Cannot open GPIO to unexport it\n");
 220              		.loc 1 108 0
 221 017c 40F20000 		movw	r0, #:lower16:.LC3
 222 0180 C0F20000 		movt	r0, #:upper16:.LC3
 223 0184 FFF7FEFF 		bl	puts
 109:../app/appXynthDemo.c ****        return -1;
 224              		.loc 1 109 0
 225 0188 4FF0FF33 		mov	r3, #-1
 226 018c 18E0     		b	.L9
 227              	.L12:
 110:../app/appXynthDemo.c ****       }
 111:../app/appXynthDemo.c ****      /* Write the gpio you want to unexport and close the export interface. */
 112:../app/appXynthDemo.c ****      write(gpio_fd , gpio, strlen(gpio)+1);
 228              		.loc 1 112 0
 229 018e 40F20003 		movw	r3, #:lower16:gpio_fd
 230 0192 C0F20003 		movt	r3, #:upper16:gpio_fd
 231 0196 1C68     		ldr	r4, [r3]
 232 0198 B868     		ldr	r0, [r7, #8]
 233 019a FFF7FEFF 		bl	strlen
 234 019e 0346     		mov	r3, r0
 235 01a0 0133     		adds	r3, r3, #1
 236 01a2 2046     		mov	r0, r4
 237 01a4 B968     		ldr	r1, [r7, #8]
 238 01a6 1A46     		mov	r2, r3
 239 01a8 FFF7FEFF 		bl	write
 113:../app/appXynthDemo.c ****      close(gpio_fd);
 240              		.loc 1 113 0
 241 01ac 40F20003 		movw	r3, #:lower16:gpio_fd
 242 01b0 C0F20003 		movt	r3, #:upper16:gpio_fd
 243 01b4 1B68     		ldr	r3, [r3]
 244 01b6 1846     		mov	r0, r3
 245 01b8 FFF7FEFF 		bl	close
 114:../app/appXynthDemo.c ****      break;
 246              		.loc 1 114 0
 247 01bc 00BF     		nop
 248              	.L2:
 115:../app/appXynthDemo.c ****    }
 116:../app/appXynthDemo.c ****   return 0;
 249              		.loc 1 116 0
 250 01be 0023     		movs	r3, #0
 251              	.L9:
 117:../app/appXynthDemo.c ****  }
 252              		.loc 1 117 0
 253 01c0 1846     		mov	r0, r3
 254 01c2 1437     		adds	r7, r7, #20
 255 01c4 BD46     		mov	sp, r7
 256              		@ sp needed
 257 01c6 90BD     		pop	{r4, r7, pc}
 258              		.cfi_endproc
 259              	.LFE2:
 261              		.section	.rodata
 262              		.align	2
 263              	.LC4:
 264 007c 0A457869 		.ascii	"\012Exit via Ctrl-C\000"
 264      74207669 
 264      61204374 
 264      726C2D43 
 264      00
 265 008d 000000   		.align	2
 266              	.LC5:
 267 0090 2F737973 		.ascii	"/sys/class/gpio/gpio67/value\000"
 267      2F636C61 
 267      73732F67 
 267      70696F2F 
 267      6770696F 
 268 00ad 000000   		.align	2
 269              	.LC6:
 270 00b0 3100     		.ascii	"1\000"
 271 00b2 0000     		.align	2
 272              	.LC7:
 273 00b4 2F737973 		.ascii	"/sys/class/gpio/gpio68/value\000"
 273      2F636C61 
 273      73732F67 
 273      70696F2F 
 273      6770696F 
 274 00d1 000000   		.align	2
 275              	.LC8:
 276 00d4 2F737973 		.ascii	"/sys/class/gpio/gpio61/value\000"
 276      2F636C61 
 276      73732F67 
 276      70696F2F 
 276      6770696F 
 277              		.text
 278              		.align	2
 279              		.global	signal_callback_handler
 280              		.thumb
 281              		.thumb_func
 283              	signal_callback_handler:
 284              	.LFB3:
 118:../app/appXynthDemo.c **** 
 119:../app/appXynthDemo.c **** /*
 120:../app/appXynthDemo.c ****  ***************************************************************************
 121:../app/appXynthDemo.c ****  * Define the function to be called when ctrl-c (SIGINT)
 122:../app/appXynthDemo.c ****  * signal is sent to process
 123:../app/appXynthDemo.c ****  ***************************************************************************
 124:../app/appXynthDemo.c ****  */
 125:../app/appXynthDemo.c **** 
 126:../app/appXynthDemo.c **** void signal_callback_handler(int signum)
 127:../app/appXynthDemo.c ****  {
 285              		.loc 1 127 0
 286              		.cfi_startproc
 287              		@ args = 0, pretend = 0, frame = 8
 288              		@ frame_needed = 1, uses_anonymous_args = 0
 289 01c8 80B5     		push	{r7, lr}
 290              	.LCFI3:
 291              		.cfi_def_cfa_offset 8
 292              		.cfi_offset 7, -8
 293              		.cfi_offset 14, -4
 294 01ca 82B0     		sub	sp, sp, #8
 295              	.LCFI4:
 296              		.cfi_def_cfa_offset 16
 297 01cc 00AF     		add	r7, sp, #0
 298              	.LCFI5:
 299              		.cfi_def_cfa_register 7
 300 01ce 7860     		str	r0, [r7, #4]
 128:../app/appXynthDemo.c ****   printf("\nExit via Ctrl-C\n");
 301              		.loc 1 128 0
 302 01d0 40F20000 		movw	r0, #:lower16:.LC4
 303 01d4 C0F20000 		movt	r0, #:upper16:.LC4
 304 01d8 FFF7FEFF 		bl	puts
 129:../app/appXynthDemo.c **** 
 130:../app/appXynthDemo.c ****   /* Turn the LEDs off */
 131:../app/appXynthDemo.c ****   sysfs_gpio_handler("/sys/class/gpio/gpio67/value", "1", GPIO_SYSFS_VALUE);
 305              		.loc 1 131 0
 306 01dc 40F20000 		movw	r0, #:lower16:.LC5
 307 01e0 C0F20000 		movt	r0, #:upper16:.LC5
 308 01e4 40F20001 		movw	r1, #:lower16:.LC6
 309 01e8 C0F20001 		movt	r1, #:upper16:.LC6
 310 01ec 0222     		movs	r2, #2
 311 01ee FFF7FEFF 		bl	sysfs_gpio_handler
 132:../app/appXynthDemo.c ****   sysfs_gpio_handler("/sys/class/gpio/gpio68/value", "1", GPIO_SYSFS_VALUE);
 312              		.loc 1 132 0
 313 01f2 40F20000 		movw	r0, #:lower16:.LC7
 314 01f6 C0F20000 		movt	r0, #:upper16:.LC7
 315 01fa 40F20001 		movw	r1, #:lower16:.LC6
 316 01fe C0F20001 		movt	r1, #:upper16:.LC6
 317 0202 0222     		movs	r2, #2
 318 0204 FFF7FEFF 		bl	sysfs_gpio_handler
 133:../app/appXynthDemo.c ****   sysfs_gpio_handler("/sys/class/gpio/gpio61/value", "1", GPIO_SYSFS_VALUE);
 319              		.loc 1 133 0
 320 0208 40F20000 		movw	r0, #:lower16:.LC8
 321 020c C0F20000 		movt	r0, #:upper16:.LC8
 322 0210 40F20001 		movw	r1, #:lower16:.LC6
 323 0214 C0F20001 		movt	r1, #:upper16:.LC6
 324 0218 0222     		movs	r2, #2
 325 021a FFF7FEFF 		bl	sysfs_gpio_handler
 134:../app/appXynthDemo.c **** 
 135:../app/appXynthDemo.c ****   /* Terminate program */
 136:../app/appXynthDemo.c ****   exit(signum);
 326              		.loc 1 136 0
 327 021e 7868     		ldr	r0, [r7, #4]
 328 0220 FFF7FEFF 		bl	exit
 329              		.cfi_endproc
 330              	.LFE3:
 332              		.section	.rodata
 333 00f1 000000   		.align	2
 334              	.LC9:
 335 00f4 3000     		.ascii	"0\000"
 336              		.text
 337              		.align	2
 338              		.thumb
 339              		.thumb_func
 341              	led1_toggle:
 342              	.LFB4:
 137:../app/appXynthDemo.c ****  }
 138:../app/appXynthDemo.c **** 
 139:../app/appXynthDemo.c **** /*
 140:../app/appXynthDemo.c ****  ******************************************************************************
 141:../app/appXynthDemo.c ****  * Toggle the LEDs
 142:../app/appXynthDemo.c ****  ******************************************************************************
 143:../app/appXynthDemo.c ****  */
 144:../app/appXynthDemo.c **** 
 145:../app/appXynthDemo.c **** static void led1_toggle(s_window_t *window, s_event_t *event, s_handler_t *handler)
 146:../app/appXynthDemo.c ****  {
 343              		.loc 1 146 0
 344              		.cfi_startproc
 345              		@ args = 0, pretend = 0, frame = 16
 346              		@ frame_needed = 1, uses_anonymous_args = 0
 347 0224 90B5     		push	{r4, r7, lr}
 348              	.LCFI6:
 349              		.cfi_def_cfa_offset 12
 350              		.cfi_offset 4, -12
 351              		.cfi_offset 7, -8
 352              		.cfi_offset 14, -4
 353 0226 87B0     		sub	sp, sp, #28
 354              	.LCFI7:
 355              		.cfi_def_cfa_offset 40
 356 0228 02AF     		add	r7, sp, #8
 357              	.LCFI8:
 358              		.cfi_def_cfa 7, 32
 359 022a F860     		str	r0, [r7, #12]
 360 022c B960     		str	r1, [r7, #8]
 361 022e 7A60     		str	r2, [r7, #4]
 147:../app/appXynthDemo.c **** 	static bool on = 0;
 148:../app/appXynthDemo.c ****   /* toggle the LED-1 */
 149:../app/appXynthDemo.c **** 	if(on == true)
 362              		.loc 1 149 0
 363 0230 40F20003 		movw	r3, #:lower16:on.9051
 364 0234 C0F20003 		movt	r3, #:upper16:on.9051
 365 0238 1B78     		ldrb	r3, [r3]	@ zero_extendqisi2
 366 023a 002B     		cmp	r3, #0
 367 023c 0BD0     		beq	.L15
 150:../app/appXynthDemo.c **** 		sysfs_gpio_handler("/sys/class/gpio/gpio67/value", "0", GPIO_SYSFS_VALUE);
 368              		.loc 1 150 0
 369 023e 40F20000 		movw	r0, #:lower16:.LC5
 370 0242 C0F20000 		movt	r0, #:upper16:.LC5
 371 0246 40F20001 		movw	r1, #:lower16:.LC9
 372 024a C0F20001 		movt	r1, #:upper16:.LC9
 373 024e 0222     		movs	r2, #2
 374 0250 FFF7FEFF 		bl	sysfs_gpio_handler
 375 0254 0AE0     		b	.L16
 376              	.L15:
 151:../app/appXynthDemo.c **** 	else
 152:../app/appXynthDemo.c **** 		sysfs_gpio_handler("/sys/class/gpio/gpio67/value", "1", GPIO_SYSFS_VALUE);
 377              		.loc 1 152 0
 378 0256 40F20000 		movw	r0, #:lower16:.LC5
 379 025a C0F20000 		movt	r0, #:upper16:.LC5
 380 025e 40F20001 		movw	r1, #:lower16:.LC6
 381 0262 C0F20001 		movt	r1, #:upper16:.LC6
 382 0266 0222     		movs	r2, #2
 383 0268 FFF7FEFF 		bl	sysfs_gpio_handler
 384              	.L16:
 153:../app/appXynthDemo.c **** 	on = !on;
 385              		.loc 1 153 0
 386 026c 40F20003 		movw	r3, #:lower16:on.9051
 387 0270 C0F20003 		movt	r3, #:upper16:on.9051
 388 0274 1B78     		ldrb	r3, [r3]	@ zero_extendqisi2
 389 0276 002B     		cmp	r3, #0
 390 0278 0CBF     		ite	eq
 391 027a 0023     		moveq	r3, #0
 392 027c 0123     		movne	r3, #1
 393 027e DBB2     		uxtb	r3, r3
 394 0280 83F00103 		eor	r3, r3, #1
 395 0284 DBB2     		uxtb	r3, r3
 396 0286 03F00103 		and	r3, r3, #1
 397 028a DAB2     		uxtb	r2, r3
 398 028c 40F20003 		movw	r3, #:lower16:on.9051
 399 0290 C0F20003 		movt	r3, #:upper16:on.9051
 400 0294 1A70     		strb	r2, [r3]
 154:../app/appXynthDemo.c **** 
 155:../app/appXynthDemo.c ****   s_fillbox(window->surface, 158, 200, 70, 70, s_rgbcolor(window->surface, 255, 255, 255));
 401              		.loc 1 155 0
 402 0296 FB68     		ldr	r3, [r7, #12]
 403 0298 5C6B     		ldr	r4, [r3, #52]
 404 029a FB68     		ldr	r3, [r7, #12]
 405 029c 5B6B     		ldr	r3, [r3, #52]
 406 029e 1846     		mov	r0, r3
 407 02a0 FF21     		movs	r1, #255
 408 02a2 FF22     		movs	r2, #255
 409 02a4 FF23     		movs	r3, #255
 410 02a6 FFF7FEFF 		bl	s_rgbcolor
 411 02aa 0346     		mov	r3, r0
 412 02ac 4622     		movs	r2, #70
 413 02ae 0092     		str	r2, [sp]
 414 02b0 0193     		str	r3, [sp, #4]
 415 02b2 2046     		mov	r0, r4
 416 02b4 9E21     		movs	r1, #158
 417 02b6 C822     		movs	r2, #200
 418 02b8 4623     		movs	r3, #70
 419 02ba FFF7FEFF 		bl	s_fillbox
 156:../app/appXynthDemo.c ****   s_fillbox(window->surface, 162, 204, 62, 62, s_rgbcolor(window->surface, 30, 255, 30));
 420              		.loc 1 156 0
 421 02be FB68     		ldr	r3, [r7, #12]
 422 02c0 5C6B     		ldr	r4, [r3, #52]
 423 02c2 FB68     		ldr	r3, [r7, #12]
 424 02c4 5B6B     		ldr	r3, [r3, #52]
 425 02c6 1846     		mov	r0, r3
 426 02c8 1E21     		movs	r1, #30
 427 02ca FF22     		movs	r2, #255
 428 02cc 1E23     		movs	r3, #30
 429 02ce FFF7FEFF 		bl	s_rgbcolor
 430 02d2 0346     		mov	r3, r0
 431 02d4 3E22     		movs	r2, #62
 432 02d6 0092     		str	r2, [sp]
 433 02d8 0193     		str	r3, [sp, #4]
 434 02da 2046     		mov	r0, r4
 435 02dc A221     		movs	r1, #162
 436 02de CC22     		movs	r2, #204
 437 02e0 3E23     		movs	r3, #62
 438 02e2 FFF7FEFF 		bl	s_fillbox
 157:../app/appXynthDemo.c ****   usleep(40000);
 439              		.loc 1 157 0
 440 02e6 49F64040 		movw	r0, #40000
 441 02ea FFF7FEFF 		bl	usleep
 158:../app/appXynthDemo.c **** 
 159:../app/appXynthDemo.c ****   s_fillbox(window->surface, 158, 200, 70, 70, s_rgbcolor(window->surface, 0, 0, 0));
 442              		.loc 1 159 0
 443 02ee FB68     		ldr	r3, [r7, #12]
 444 02f0 5C6B     		ldr	r4, [r3, #52]
 445 02f2 FB68     		ldr	r3, [r7, #12]
 446 02f4 5B6B     		ldr	r3, [r3, #52]
 447 02f6 1846     		mov	r0, r3
 448 02f8 0021     		movs	r1, #0
 449 02fa 0022     		movs	r2, #0
 450 02fc 0023     		movs	r3, #0
 451 02fe FFF7FEFF 		bl	s_rgbcolor
 452 0302 0346     		mov	r3, r0
 453 0304 4622     		movs	r2, #70
 454 0306 0092     		str	r2, [sp]
 455 0308 0193     		str	r3, [sp, #4]
 456 030a 2046     		mov	r0, r4
 457 030c 9E21     		movs	r1, #158
 458 030e C822     		movs	r2, #200
 459 0310 4623     		movs	r3, #70
 460 0312 FFF7FEFF 		bl	s_fillbox
 160:../app/appXynthDemo.c ****   s_fillbox(window->surface, 162, 204, 62, 62, s_rgbcolor(window->surface, 30, 255, 30));
 461              		.loc 1 160 0
 462 0316 FB68     		ldr	r3, [r7, #12]
 463 0318 5C6B     		ldr	r4, [r3, #52]
 464 031a FB68     		ldr	r3, [r7, #12]
 465 031c 5B6B     		ldr	r3, [r3, #52]
 466 031e 1846     		mov	r0, r3
 467 0320 1E21     		movs	r1, #30
 468 0322 FF22     		movs	r2, #255
 469 0324 1E23     		movs	r3, #30
 470 0326 FFF7FEFF 		bl	s_rgbcolor
 471 032a 0346     		mov	r3, r0
 472 032c 3E22     		movs	r2, #62
 473 032e 0092     		str	r2, [sp]
 474 0330 0193     		str	r3, [sp, #4]
 475 0332 2046     		mov	r0, r4
 476 0334 A221     		movs	r1, #162
 477 0336 CC22     		movs	r2, #204
 478 0338 3E23     		movs	r3, #62
 479 033a FFF7FEFF 		bl	s_fillbox
 161:../app/appXynthDemo.c ****   usleep(40000);
 480              		.loc 1 161 0
 481 033e 49F64040 		movw	r0, #40000
 482 0342 FFF7FEFF 		bl	usleep
 162:../app/appXynthDemo.c ****  }
 483              		.loc 1 162 0
 484 0346 1437     		adds	r7, r7, #20
 485 0348 BD46     		mov	sp, r7
 486              		@ sp needed
 487 034a 90BD     		pop	{r4, r7, pc}
 488              		.cfi_endproc
 489              	.LFE4:
 491              		.align	2
 492              		.thumb
 493              		.thumb_func
 495              	led2_toggle:
 496              	.LFB5:
 163:../app/appXynthDemo.c **** 
 164:../app/appXynthDemo.c **** static void led2_toggle(s_window_t *window, s_event_t *event, s_handler_t *handler)
 165:../app/appXynthDemo.c ****  {
 497              		.loc 1 165 0
 498              		.cfi_startproc
 499              		@ args = 0, pretend = 0, frame = 16
 500              		@ frame_needed = 1, uses_anonymous_args = 0
 501 034c 90B5     		push	{r4, r7, lr}
 502              	.LCFI9:
 503              		.cfi_def_cfa_offset 12
 504              		.cfi_offset 4, -12
 505              		.cfi_offset 7, -8
 506              		.cfi_offset 14, -4
 507 034e 87B0     		sub	sp, sp, #28
 508              	.LCFI10:
 509              		.cfi_def_cfa_offset 40
 510 0350 02AF     		add	r7, sp, #8
 511              	.LCFI11:
 512              		.cfi_def_cfa 7, 32
 513 0352 F860     		str	r0, [r7, #12]
 514 0354 B960     		str	r1, [r7, #8]
 515 0356 7A60     		str	r2, [r7, #4]
 166:../app/appXynthDemo.c **** 	static bool on = 0;
 167:../app/appXynthDemo.c ****   /* toggle the LED-2 */
 168:../app/appXynthDemo.c **** 	if(on == true)
 516              		.loc 1 168 0
 517 0358 40F20003 		movw	r3, #:lower16:on.9057
 518 035c C0F20003 		movt	r3, #:upper16:on.9057
 519 0360 1B78     		ldrb	r3, [r3]	@ zero_extendqisi2
 520 0362 002B     		cmp	r3, #0
 521 0364 0BD0     		beq	.L18
 169:../app/appXynthDemo.c **** 		sysfs_gpio_handler("/sys/class/gpio/gpio68/value", "0", GPIO_SYSFS_VALUE);
 522              		.loc 1 169 0
 523 0366 40F20000 		movw	r0, #:lower16:.LC7
 524 036a C0F20000 		movt	r0, #:upper16:.LC7
 525 036e 40F20001 		movw	r1, #:lower16:.LC9
 526 0372 C0F20001 		movt	r1, #:upper16:.LC9
 527 0376 0222     		movs	r2, #2
 528 0378 FFF7FEFF 		bl	sysfs_gpio_handler
 529 037c 0AE0     		b	.L19
 530              	.L18:
 170:../app/appXynthDemo.c **** 	else
 171:../app/appXynthDemo.c **** 		sysfs_gpio_handler("/sys/class/gpio/gpio68/value", "1", GPIO_SYSFS_VALUE);
 531              		.loc 1 171 0
 532 037e 40F20000 		movw	r0, #:lower16:.LC7
 533 0382 C0F20000 		movt	r0, #:upper16:.LC7
 534 0386 40F20001 		movw	r1, #:lower16:.LC6
 535 038a C0F20001 		movt	r1, #:upper16:.LC6
 536 038e 0222     		movs	r2, #2
 537 0390 FFF7FEFF 		bl	sysfs_gpio_handler
 538              	.L19:
 172:../app/appXynthDemo.c **** 	on = !on;
 539              		.loc 1 172 0
 540 0394 40F20003 		movw	r3, #:lower16:on.9057
 541 0398 C0F20003 		movt	r3, #:upper16:on.9057
 542 039c 1B78     		ldrb	r3, [r3]	@ zero_extendqisi2
 543 039e 002B     		cmp	r3, #0
 544 03a0 0CBF     		ite	eq
 545 03a2 0023     		moveq	r3, #0
 546 03a4 0123     		movne	r3, #1
 547 03a6 DBB2     		uxtb	r3, r3
 548 03a8 83F00103 		eor	r3, r3, #1
 549 03ac DBB2     		uxtb	r3, r3
 550 03ae 03F00103 		and	r3, r3, #1
 551 03b2 DAB2     		uxtb	r2, r3
 552 03b4 40F20003 		movw	r3, #:lower16:on.9057
 553 03b8 C0F20003 		movt	r3, #:upper16:on.9057
 554 03bc 1A70     		strb	r2, [r3]
 173:../app/appXynthDemo.c **** 
 174:../app/appXynthDemo.c ****   s_fillbox(window->surface, 380, 200, 70, 70, s_rgbcolor(window->surface, 255, 255, 255));
 555              		.loc 1 174 0
 556 03be FB68     		ldr	r3, [r7, #12]
 557 03c0 5C6B     		ldr	r4, [r3, #52]
 558 03c2 FB68     		ldr	r3, [r7, #12]
 559 03c4 5B6B     		ldr	r3, [r3, #52]
 560 03c6 1846     		mov	r0, r3
 561 03c8 FF21     		movs	r1, #255
 562 03ca FF22     		movs	r2, #255
 563 03cc FF23     		movs	r3, #255
 564 03ce FFF7FEFF 		bl	s_rgbcolor
 565 03d2 0346     		mov	r3, r0
 566 03d4 4622     		movs	r2, #70
 567 03d6 0092     		str	r2, [sp]
 568 03d8 0193     		str	r3, [sp, #4]
 569 03da 2046     		mov	r0, r4
 570 03dc 4FF4BE71 		mov	r1, #380
 571 03e0 C822     		movs	r2, #200
 572 03e2 4623     		movs	r3, #70
 573 03e4 FFF7FEFF 		bl	s_fillbox
 175:../app/appXynthDemo.c ****   s_fillbox(window->surface, 384, 204, 62, 62, s_rgbcolor(window->surface, 30, 255, 30));
 574              		.loc 1 175 0
 575 03e8 FB68     		ldr	r3, [r7, #12]
 576 03ea 5C6B     		ldr	r4, [r3, #52]
 577 03ec FB68     		ldr	r3, [r7, #12]
 578 03ee 5B6B     		ldr	r3, [r3, #52]
 579 03f0 1846     		mov	r0, r3
 580 03f2 1E21     		movs	r1, #30
 581 03f4 FF22     		movs	r2, #255
 582 03f6 1E23     		movs	r3, #30
 583 03f8 FFF7FEFF 		bl	s_rgbcolor
 584 03fc 0346     		mov	r3, r0
 585 03fe 3E22     		movs	r2, #62
 586 0400 0092     		str	r2, [sp]
 587 0402 0193     		str	r3, [sp, #4]
 588 0404 2046     		mov	r0, r4
 589 0406 4FF4C071 		mov	r1, #384
 590 040a CC22     		movs	r2, #204
 591 040c 3E23     		movs	r3, #62
 592 040e FFF7FEFF 		bl	s_fillbox
 176:../app/appXynthDemo.c ****   usleep(40000);
 593              		.loc 1 176 0
 594 0412 49F64040 		movw	r0, #40000
 595 0416 FFF7FEFF 		bl	usleep
 177:../app/appXynthDemo.c **** 
 178:../app/appXynthDemo.c ****   s_fillbox(window->surface, 380, 200, 70, 70, s_rgbcolor(window->surface, 0, 0, 0));
 596              		.loc 1 178 0
 597 041a FB68     		ldr	r3, [r7, #12]
 598 041c 5C6B     		ldr	r4, [r3, #52]
 599 041e FB68     		ldr	r3, [r7, #12]
 600 0420 5B6B     		ldr	r3, [r3, #52]
 601 0422 1846     		mov	r0, r3
 602 0424 0021     		movs	r1, #0
 603 0426 0022     		movs	r2, #0
 604 0428 0023     		movs	r3, #0
 605 042a FFF7FEFF 		bl	s_rgbcolor
 606 042e 0346     		mov	r3, r0
 607 0430 4622     		movs	r2, #70
 608 0432 0092     		str	r2, [sp]
 609 0434 0193     		str	r3, [sp, #4]
 610 0436 2046     		mov	r0, r4
 611 0438 4FF4BE71 		mov	r1, #380
 612 043c C822     		movs	r2, #200
 613 043e 4623     		movs	r3, #70
 614 0440 FFF7FEFF 		bl	s_fillbox
 179:../app/appXynthDemo.c ****   s_fillbox(window->surface, 384, 204, 62, 62, s_rgbcolor(window->surface, 30, 255, 30));
 615              		.loc 1 179 0
 616 0444 FB68     		ldr	r3, [r7, #12]
 617 0446 5C6B     		ldr	r4, [r3, #52]
 618 0448 FB68     		ldr	r3, [r7, #12]
 619 044a 5B6B     		ldr	r3, [r3, #52]
 620 044c 1846     		mov	r0, r3
 621 044e 1E21     		movs	r1, #30
 622 0450 FF22     		movs	r2, #255
 623 0452 1E23     		movs	r3, #30
 624 0454 FFF7FEFF 		bl	s_rgbcolor
 625 0458 0346     		mov	r3, r0
 626 045a 3E22     		movs	r2, #62
 627 045c 0092     		str	r2, [sp]
 628 045e 0193     		str	r3, [sp, #4]
 629 0460 2046     		mov	r0, r4
 630 0462 4FF4C071 		mov	r1, #384
 631 0466 CC22     		movs	r2, #204
 632 0468 3E23     		movs	r3, #62
 633 046a FFF7FEFF 		bl	s_fillbox
 180:../app/appXynthDemo.c ****   usleep(40000);
 634              		.loc 1 180 0
 635 046e 49F64040 		movw	r0, #40000
 636 0472 FFF7FEFF 		bl	usleep
 181:../app/appXynthDemo.c ****  }
 637              		.loc 1 181 0
 638 0476 1437     		adds	r7, r7, #20
 639 0478 BD46     		mov	sp, r7
 640              		@ sp needed
 641 047a 90BD     		pop	{r4, r7, pc}
 642              		.cfi_endproc
 643              	.LFE5:
 645              		.align	2
 646              		.thumb
 647              		.thumb_func
 649              	timer0_handler:
 650              	.LFB6:
 182:../app/appXynthDemo.c **** 
 183:../app/appXynthDemo.c **** /*
 184:../app/appXynthDemo.c ****  ******************************************************************************
 185:../app/appXynthDemo.c ****  * Handler for timer0
 186:../app/appXynthDemo.c ****  ******************************************************************************
 187:../app/appXynthDemo.c ****  */
 188:../app/appXynthDemo.c **** 
 189:../app/appXynthDemo.c **** static void timer0_handler(s_window_t *window, s_timer_t *timer)
 190:../app/appXynthDemo.c ****  {
 651              		.loc 1 190 0
 652              		.cfi_startproc
 653              		@ args = 0, pretend = 0, frame = 8
 654              		@ frame_needed = 1, uses_anonymous_args = 0
 655 047c 80B5     		push	{r7, lr}
 656              	.LCFI12:
 657              		.cfi_def_cfa_offset 8
 658              		.cfi_offset 7, -8
 659              		.cfi_offset 14, -4
 660 047e 82B0     		sub	sp, sp, #8
 661              	.LCFI13:
 662              		.cfi_def_cfa_offset 16
 663 0480 00AF     		add	r7, sp, #0
 664              	.LCFI14:
 665              		.cfi_def_cfa_register 7
 666 0482 7860     		str	r0, [r7, #4]
 667 0484 3960     		str	r1, [r7]
 191:../app/appXynthDemo.c ****   static bool toggleFlag = 0;
 192:../app/appXynthDemo.c **** 
 193:../app/appXynthDemo.c ****   if (toggleFlag == true)
 668              		.loc 1 193 0
 669 0486 40F20003 		movw	r3, #:lower16:toggleFlag.9062
 670 048a C0F20003 		movt	r3, #:upper16:toggleFlag.9062
 671 048e 1B78     		ldrb	r3, [r3]	@ zero_extendqisi2
 672 0490 002B     		cmp	r3, #0
 673 0492 0BD0     		beq	.L21
 194:../app/appXynthDemo.c ****    /* Turn the LED-4 on */
 195:../app/appXynthDemo.c ****    sysfs_gpio_handler("/sys/class/gpio/gpio61/value", "0", GPIO_SYSFS_VALUE);
 674              		.loc 1 195 0
 675 0494 40F20000 		movw	r0, #:lower16:.LC8
 676 0498 C0F20000 		movt	r0, #:upper16:.LC8
 677 049c 40F20001 		movw	r1, #:lower16:.LC9
 678 04a0 C0F20001 		movt	r1, #:upper16:.LC9
 679 04a4 0222     		movs	r2, #2
 680 04a6 FFF7FEFF 		bl	sysfs_gpio_handler
 681 04aa 0AE0     		b	.L22
 682              	.L21:
 196:../app/appXynthDemo.c ****   else
 197:../app/appXynthDemo.c ****    /* Turn the LED-4 off */
 198:../app/appXynthDemo.c ****    sysfs_gpio_handler("/sys/class/gpio/gpio61/value", "1", GPIO_SYSFS_VALUE);
 683              		.loc 1 198 0
 684 04ac 40F20000 		movw	r0, #:lower16:.LC8
 685 04b0 C0F20000 		movt	r0, #:upper16:.LC8
 686 04b4 40F20001 		movw	r1, #:lower16:.LC6
 687 04b8 C0F20001 		movt	r1, #:upper16:.LC6
 688 04bc 0222     		movs	r2, #2
 689 04be FFF7FEFF 		bl	sysfs_gpio_handler
 690              	.L22:
 199:../app/appXynthDemo.c ****  toggleFlag = !toggleFlag;
 691              		.loc 1 199 0
 692 04c2 40F20003 		movw	r3, #:lower16:toggleFlag.9062
 693 04c6 C0F20003 		movt	r3, #:upper16:toggleFlag.9062
 694 04ca 1B78     		ldrb	r3, [r3]	@ zero_extendqisi2
 695 04cc 002B     		cmp	r3, #0
 696 04ce 0CBF     		ite	eq
 697 04d0 0023     		moveq	r3, #0
 698 04d2 0123     		movne	r3, #1
 699 04d4 DBB2     		uxtb	r3, r3
 700 04d6 83F00103 		eor	r3, r3, #1
 701 04da DBB2     		uxtb	r3, r3
 702 04dc 03F00103 		and	r3, r3, #1
 703 04e0 DAB2     		uxtb	r2, r3
 704 04e2 40F20003 		movw	r3, #:lower16:toggleFlag.9062
 705 04e6 C0F20003 		movt	r3, #:upper16:toggleFlag.9062
 706 04ea 1A70     		strb	r2, [r3]
 200:../app/appXynthDemo.c ****  }
 707              		.loc 1 200 0
 708 04ec 0837     		adds	r7, r7, #8
 709 04ee BD46     		mov	sp, r7
 710              		@ sp needed
 711 04f0 80BD     		pop	{r7, pc}
 712              		.cfi_endproc
 713              	.LFE6:
 715              		.section	.rodata
 716 00f6 0000     		.align	2
 717              	.LC10:
 718 00f8 7475785F 		.ascii	"tux_80x96.png\000"
 718      38307839 
 718      362E706E 
 718      6700
 719 0106 0000     		.align	2
 720              	.LC11:
 721 0108 786B6364 		.ascii	"xkcd.png\000"
 721      2E706E67 
 721      00
 722 0111 000000   		.align	2
 723              	.LC12:
 724 0114 2F737973 		.ascii	"/sys/class/gpio/export\000"
 724      2F636C61 
 724      73732F67 
 724      70696F2F 
 724      6578706F 
 725 012b 00       		.align	2
 726              	.LC13:
 727 012c 363700   		.ascii	"67\000"
 728 012f 00       		.align	2
 729              	.LC14:
 730 0130 2F737973 		.ascii	"/sys/class/gpio/gpio67/direction\000"
 730      2F636C61 
 730      73732F67 
 730      70696F2F 
 730      6770696F 
 731 0151 000000   		.align	2
 732              	.LC15:
 733 0154 6F757400 		.ascii	"out\000"
 734              		.align	2
 735              	.LC16:
 736 0158 363800   		.ascii	"68\000"
 737 015b 00       		.align	2
 738              	.LC17:
 739 015c 2F737973 		.ascii	"/sys/class/gpio/gpio68/direction\000"
 739      2F636C61 
 739      73732F67 
 739      70696F2F 
 739      6770696F 
 740 017d 000000   		.align	2
 741              	.LC18:
 742 0180 363100   		.ascii	"61\000"
 743 0183 00       		.align	2
 744              	.LC19:
 745 0184 2F737973 		.ascii	"/sys/class/gpio/gpio61/direction\000"
 745      2F636C61 
 745      73732F67 
 745      70696F2F 
 745      6770696F 
 746 01a5 000000   		.align	2
 747              	.LC20:
 748 01a8 61726961 		.ascii	"arial.ttf\000"
 748      6C2E7474 
 748      6600
 749 01b2 0000     		.align	2
 750              	.LC21:
 751 01b4 58796E74 		.ascii	"Xynth LED-Demo\000"
 751      68204C45 
 751      442D4465 
 751      6D6F00
 752 01c3 00       		.align	2
 753              	.LC22:
 754 01c4 4C454420 		.ascii	"LED 1\000"
 754      3100
 755 01ca 0000     		.align	2
 756              	.LC23:
 757 01cc 4C454420 		.ascii	"LED 2\000"
 757      3200
 758 01d2 0000     		.text
 759 04f2 00BF     		.align	2
 760              		.global	main
 761              		.thumb
 762              		.thumb_func
 764              	main:
 765              	.LFB7:
 201:../app/appXynthDemo.c **** 
 202:../app/appXynthDemo.c **** /*
 203:../app/appXynthDemo.c ****  ******************************************************************************
 204:../app/appXynthDemo.c ****  * main
 205:../app/appXynthDemo.c ****  ******************************************************************************
 206:../app/appXynthDemo.c ****  */
 207:../app/appXynthDemo.c **** 
 208:../app/appXynthDemo.c **** int main (int argc, char *argv[])
 209:../app/appXynthDemo.c ****  {
 766              		.loc 1 209 0
 767              		.cfi_startproc
 768              		@ args = 0, pretend = 0, frame = 56
 769              		@ frame_needed = 1, uses_anonymous_args = 0
 770 04f4 B0B5     		push	{r4, r5, r7, lr}
 771              	.LCFI15:
 772              		.cfi_def_cfa_offset 16
 773              		.cfi_offset 4, -16
 774              		.cfi_offset 5, -12
 775              		.cfi_offset 7, -8
 776              		.cfi_offset 14, -4
 777 04f6 90B0     		sub	sp, sp, #64
 778              	.LCFI16:
 779              		.cfi_def_cfa_offset 80
 780 04f8 02AF     		add	r7, sp, #8
 781              	.LCFI17:
 782              		.cfi_def_cfa 7, 72
 783 04fa 7860     		str	r0, [r7, #4]
 784 04fc 3960     		str	r1, [r7]
 210:../app/appXynthDemo.c ****   int x;
 211:../app/appXynthDemo.c ****   int y;
 212:../app/appXynthDemo.c ****   int w;
 213:../app/appXynthDemo.c ****   int h;
 214:../app/appXynthDemo.c **** 
 215:../app/appXynthDemo.c ****   s_font_t *font;
 216:../app/appXynthDemo.c ****   s_handler_t *hndl;
 217:../app/appXynthDemo.c ****   s_window_t *window;
 218:../app/appXynthDemo.c ****   s_timer_t *timer;
 219:../app/appXynthDemo.c ****   s_image_t *img1;
 220:../app/appXynthDemo.c ****   s_image_t *img2;
 221:../app/appXynthDemo.c ****   char *file1 = "tux_80x96.png";
 785              		.loc 1 221 0
 786 04fe 40F20003 		movw	r3, #:lower16:.LC10
 787 0502 C0F20003 		movt	r3, #:upper16:.LC10
 788 0506 3B63     		str	r3, [r7, #48]
 222:../app/appXynthDemo.c ****   char *file2 = "xkcd.png";
 789              		.loc 1 222 0
 790 0508 40F20003 		movw	r3, #:lower16:.LC11
 791 050c C0F20003 		movt	r3, #:upper16:.LC11
 792 0510 FB62     		str	r3, [r7, #44]
 223:../app/appXynthDemo.c **** 
 224:../app/appXynthDemo.c ****   /* Register signal and signal handler */
 225:../app/appXynthDemo.c ****   signal(SIGINT, signal_callback_handler);
 793              		.loc 1 225 0
 794 0512 0220     		movs	r0, #2
 795 0514 40F20001 		movw	r1, #:lower16:signal_callback_handler
 796 0518 C0F20001 		movt	r1, #:upper16:signal_callback_handler
 797 051c FFF7FEFF 		bl	signal
 226:../app/appXynthDemo.c **** 
 227:../app/appXynthDemo.c ****   /* Setup gpio sysfs for LED1 */
 228:../app/appXynthDemo.c ****   sysfs_gpio_handler("/sys/class/gpio/export", "67", GPIO_SYSFS_EXPORT);
 798              		.loc 1 228 0
 799 0520 40F20000 		movw	r0, #:lower16:.LC12
 800 0524 C0F20000 		movt	r0, #:upper16:.LC12
 801 0528 40F20001 		movw	r1, #:lower16:.LC13
 802 052c C0F20001 		movt	r1, #:upper16:.LC13
 803 0530 0022     		movs	r2, #0
 804 0532 FFF7FEFF 		bl	sysfs_gpio_handler
 229:../app/appXynthDemo.c ****   sysfs_gpio_handler("/sys/class/gpio/gpio67/direction", "out", GPIO_SYSFS_DIRECTION);
 805              		.loc 1 229 0
 806 0536 40F20000 		movw	r0, #:lower16:.LC14
 807 053a C0F20000 		movt	r0, #:upper16:.LC14
 808 053e 40F20001 		movw	r1, #:lower16:.LC15
 809 0542 C0F20001 		movt	r1, #:upper16:.LC15
 810 0546 0122     		movs	r2, #1
 811 0548 FFF7FEFF 		bl	sysfs_gpio_handler
 230:../app/appXynthDemo.c ****   sysfs_gpio_handler("/sys/class/gpio/gpio67/value", "1", GPIO_SYSFS_VALUE);
 812              		.loc 1 230 0
 813 054c 40F20000 		movw	r0, #:lower16:.LC5
 814 0550 C0F20000 		movt	r0, #:upper16:.LC5
 815 0554 40F20001 		movw	r1, #:lower16:.LC6
 816 0558 C0F20001 		movt	r1, #:upper16:.LC6
 817 055c 0222     		movs	r2, #2
 818 055e FFF7FEFF 		bl	sysfs_gpio_handler
 231:../app/appXynthDemo.c **** 
 232:../app/appXynthDemo.c ****   /* Setup gpio sysfs for LED2 */
 233:../app/appXynthDemo.c ****   sysfs_gpio_handler("/sys/class/gpio/export", "68", GPIO_SYSFS_EXPORT);
 819              		.loc 1 233 0
 820 0562 40F20000 		movw	r0, #:lower16:.LC12
 821 0566 C0F20000 		movt	r0, #:upper16:.LC12
 822 056a 40F20001 		movw	r1, #:lower16:.LC16
 823 056e C0F20001 		movt	r1, #:upper16:.LC16
 824 0572 0022     		movs	r2, #0
 825 0574 FFF7FEFF 		bl	sysfs_gpio_handler
 234:../app/appXynthDemo.c ****   sysfs_gpio_handler("/sys/class/gpio/gpio68/direction", "out", GPIO_SYSFS_DIRECTION);
 826              		.loc 1 234 0
 827 0578 40F20000 		movw	r0, #:lower16:.LC17
 828 057c C0F20000 		movt	r0, #:upper16:.LC17
 829 0580 40F20001 		movw	r1, #:lower16:.LC15
 830 0584 C0F20001 		movt	r1, #:upper16:.LC15
 831 0588 0122     		movs	r2, #1
 832 058a FFF7FEFF 		bl	sysfs_gpio_handler
 235:../app/appXynthDemo.c ****   sysfs_gpio_handler("/sys/class/gpio/gpio68/value", "1", GPIO_SYSFS_VALUE);
 833              		.loc 1 235 0
 834 058e 40F20000 		movw	r0, #:lower16:.LC7
 835 0592 C0F20000 		movt	r0, #:upper16:.LC7
 836 0596 40F20001 		movw	r1, #:lower16:.LC6
 837 059a C0F20001 		movt	r1, #:upper16:.LC6
 838 059e 0222     		movs	r2, #2
 839 05a0 FFF7FEFF 		bl	sysfs_gpio_handler
 236:../app/appXynthDemo.c **** 
 237:../app/appXynthDemo.c ****   /* Setup gpio sysfs for LED4 */
 238:../app/appXynthDemo.c ****   sysfs_gpio_handler("/sys/class/gpio/export", "61", GPIO_SYSFS_EXPORT);
 840              		.loc 1 238 0
 841 05a4 40F20000 		movw	r0, #:lower16:.LC12
 842 05a8 C0F20000 		movt	r0, #:upper16:.LC12
 843 05ac 40F20001 		movw	r1, #:lower16:.LC18
 844 05b0 C0F20001 		movt	r1, #:upper16:.LC18
 845 05b4 0022     		movs	r2, #0
 846 05b6 FFF7FEFF 		bl	sysfs_gpio_handler
 239:../app/appXynthDemo.c ****   sysfs_gpio_handler("/sys/class/gpio/gpio61/direction", "out", GPIO_SYSFS_DIRECTION);
 847              		.loc 1 239 0
 848 05ba 40F20000 		movw	r0, #:lower16:.LC19
 849 05be C0F20000 		movt	r0, #:upper16:.LC19
 850 05c2 40F20001 		movw	r1, #:lower16:.LC15
 851 05c6 C0F20001 		movt	r1, #:upper16:.LC15
 852 05ca 0122     		movs	r2, #1
 853 05cc FFF7FEFF 		bl	sysfs_gpio_handler
 240:../app/appXynthDemo.c ****   sysfs_gpio_handler("/sys/class/gpio/gpio61/value", "1", GPIO_SYSFS_VALUE);
 854              		.loc 1 240 0
 855 05d0 40F20000 		movw	r0, #:lower16:.LC8
 856 05d4 C0F20000 		movt	r0, #:upper16:.LC8
 857 05d8 40F20001 		movw	r1, #:lower16:.LC6
 858 05dc C0F20001 		movt	r1, #:upper16:.LC6
 859 05e0 0222     		movs	r2, #2
 860 05e2 FFF7FEFF 		bl	sysfs_gpio_handler
 241:../app/appXynthDemo.c **** 
 242:../app/appXynthDemo.c ****   /* Init window and create it	*/
 243:../app/appXynthDemo.c ****   s_window_init(&window);
 861              		.loc 1 243 0
 862 05e6 07F11403 		add	r3, r7, #20
 863 05ea 1846     		mov	r0, r3
 864 05ec FFF7FEFF 		bl	s_window_init
 244:../app/appXynthDemo.c ****   s_window_new(window, WINDOW_TYPE_MAIN | WINDOW_TYPE_NOFORM | WINDOW_TYPE_DESKTOP, NULL);
 865              		.loc 1 244 0
 866 05f0 7B69     		ldr	r3, [r7, #20]
 867 05f2 1846     		mov	r0, r3
 868 05f4 4FF40C61 		mov	r1, #2240
 869 05f8 0022     		movs	r2, #0
 870 05fa FFF7FEFF 		bl	s_window_new
 245:../app/appXynthDemo.c ****   s_window_set_cursor(window, CURSOR_TYPE_NONE);
 871              		.loc 1 245 0
 872 05fe 7B69     		ldr	r3, [r7, #20]
 873 0600 1846     		mov	r0, r3
 874 0602 0E21     		movs	r1, #14
 875 0604 FFF7FEFF 		bl	s_window_set_cursor
 246:../app/appXynthDemo.c ****   s_window_set_resizeable(window, 0);
 876              		.loc 1 246 0
 877 0608 7B69     		ldr	r3, [r7, #20]
 878 060a 1846     		mov	r0, r3
 879 060c 0021     		movs	r1, #0
 880 060e FFF7FEFF 		bl	s_window_set_resizeable
 247:../app/appXynthDemo.c ****   s_window_set_alwaysontop(window, 1);
 881              		.loc 1 247 0
 882 0612 7B69     		ldr	r3, [r7, #20]
 883 0614 1846     		mov	r0, r3
 884 0616 0121     		movs	r1, #1
 885 0618 FFF7FEFF 		bl	s_window_set_alwaysontop
 248:../app/appXynthDemo.c **** 
 249:../app/appXynthDemo.c ****   /* Set width and height */
 250:../app/appXynthDemo.c ****   w = 600;
 886              		.loc 1 250 0
 887 061c 4FF41673 		mov	r3, #600
 888 0620 BB62     		str	r3, [r7, #40]
 251:../app/appXynthDemo.c ****   h = 400;
 889              		.loc 1 251 0
 890 0622 4FF4C873 		mov	r3, #400
 891 0626 7B62     		str	r3, [r7, #36]
 252:../app/appXynthDemo.c ****   x = (window->surface->width - w) / 2;
 892              		.loc 1 252 0
 893 0628 7B69     		ldr	r3, [r7, #20]
 894 062a 5B6B     		ldr	r3, [r3, #52]
 895 062c 5A6B     		ldr	r2, [r3, #52]
 896 062e BB6A     		ldr	r3, [r7, #40]
 897 0630 D31A     		subs	r3, r2, r3
 898 0632 DA0F     		lsrs	r2, r3, #31
 899 0634 1344     		add	r3, r3, r2
 900 0636 5B10     		asrs	r3, r3, #1
 901 0638 3B62     		str	r3, [r7, #32]
 253:../app/appXynthDemo.c ****   y = (window->surface->height - h) / 2;
 902              		.loc 1 253 0
 903 063a 7B69     		ldr	r3, [r7, #20]
 904 063c 5B6B     		ldr	r3, [r3, #52]
 905 063e 9A6B     		ldr	r2, [r3, #56]
 906 0640 7B6A     		ldr	r3, [r7, #36]
 907 0642 D31A     		subs	r3, r2, r3
 908 0644 DA0F     		lsrs	r2, r3, #31
 909 0646 1344     		add	r3, r3, r2
 910 0648 5B10     		asrs	r3, r3, #1
 911 064a 7B63     		str	r3, [r7, #52]
 254:../app/appXynthDemo.c ****   s_window_set_coor(window, WINDOW_TYPE_NOFORM, x, y, w, h);
 912              		.loc 1 254 0
 913 064c 7B69     		ldr	r3, [r7, #20]
 914 064e BA6A     		ldr	r2, [r7, #40]
 915 0650 0092     		str	r2, [sp]
 916 0652 7A6A     		ldr	r2, [r7, #36]
 917 0654 0192     		str	r2, [sp, #4]
 918 0656 1846     		mov	r0, r3
 919 0658 4021     		movs	r1, #64
 920 065a 3A6A     		ldr	r2, [r7, #32]
 921 065c 7B6B     		ldr	r3, [r7, #52]
 922 065e FFF7FEFF 		bl	s_window_set_coor
 255:../app/appXynthDemo.c ****   s_free(window->surface->vbuf);
 923              		.loc 1 255 0
 924 0662 7B69     		ldr	r3, [r7, #20]
 925 0664 5B6B     		ldr	r3, [r3, #52]
 926 0666 5B6C     		ldr	r3, [r3, #68]
 927 0668 1846     		mov	r0, r3
 928 066a FFF7FEFF 		bl	s_free
 256:../app/appXynthDemo.c ****   window->surface->width = w;
 929              		.loc 1 256 0
 930 066e 7B69     		ldr	r3, [r7, #20]
 931 0670 5B6B     		ldr	r3, [r3, #52]
 932 0672 BA6A     		ldr	r2, [r7, #40]
 933 0674 5A63     		str	r2, [r3, #52]
 257:../app/appXynthDemo.c ****   window->surface->height = h;
 934              		.loc 1 257 0
 935 0676 7B69     		ldr	r3, [r7, #20]
 936 0678 5B6B     		ldr	r3, [r3, #52]
 937 067a 7A6A     		ldr	r2, [r7, #36]
 938 067c 9A63     		str	r2, [r3, #56]
 258:../app/appXynthDemo.c ****   window->surface->vbuf = (unsigned char *) malloc(w * h * window->surface->bytesperpixel);
 939              		.loc 1 258 0
 940 067e 7B69     		ldr	r3, [r7, #20]
 941 0680 5C6B     		ldr	r4, [r3, #52]
 942 0682 BB6A     		ldr	r3, [r7, #40]
 943 0684 7A6A     		ldr	r2, [r7, #36]
 944 0686 02FB03F3 		mul	r3, r2, r3
 945 068a 7A69     		ldr	r2, [r7, #20]
 946 068c 526B     		ldr	r2, [r2, #52]
 947 068e 5268     		ldr	r2, [r2, #4]
 948 0690 02FB03F3 		mul	r3, r2, r3
 949 0694 1846     		mov	r0, r3
 950 0696 FFF7FEFF 		bl	malloc
 951 069a 0346     		mov	r3, r0
 952 069c 6364     		str	r3, [r4, #68]
 259:../app/appXynthDemo.c **** 
 260:../app/appXynthDemo.c ****   /* Draw window with a gradient color */
 261:../app/appXynthDemo.c ****   s_fillbox(window->surface, 0, 0, w, h, s_rgbcolor(window->surface, 0, 0, 0));
 953              		.loc 1 261 0
 954 069e 7B69     		ldr	r3, [r7, #20]
 955 06a0 5C6B     		ldr	r4, [r3, #52]
 956 06a2 7B69     		ldr	r3, [r7, #20]
 957 06a4 5B6B     		ldr	r3, [r3, #52]
 958 06a6 1846     		mov	r0, r3
 959 06a8 0021     		movs	r1, #0
 960 06aa 0022     		movs	r2, #0
 961 06ac 0023     		movs	r3, #0
 962 06ae FFF7FEFF 		bl	s_rgbcolor
 963 06b2 0346     		mov	r3, r0
 964 06b4 7A6A     		ldr	r2, [r7, #36]
 965 06b6 0092     		str	r2, [sp]
 966 06b8 0193     		str	r3, [sp, #4]
 967 06ba 2046     		mov	r0, r4
 968 06bc 0021     		movs	r1, #0
 969 06be 0022     		movs	r2, #0
 970 06c0 BB6A     		ldr	r3, [r7, #40]
 971 06c2 FFF7FEFF 		bl	s_fillbox
 262:../app/appXynthDemo.c ****   for (y=2; y<h-2; y++)
 972              		.loc 1 262 0
 973 06c6 0223     		movs	r3, #2
 974 06c8 7B63     		str	r3, [r7, #52]
 975 06ca 4DE0     		b	.L24
 976              	.L25:
 263:../app/appXynthDemo.c ****    {
 264:../app/appXynthDemo.c ****     s_fillbox(window->surface, 2, y, w - 4, 1, s_rgbcolor(window->surface, 255 - (int) ((float) y *
 977              		.loc 1 264 0 discriminator 2
 978 06cc 7B69     		ldr	r3, [r7, #20]
 979 06ce 5D6B     		ldr	r5, [r3, #52]
 980 06d0 BB6A     		ldr	r3, [r7, #40]
 981 06d2 1C1F     		subs	r4, r3, #4
 982 06d4 7B69     		ldr	r3, [r7, #20]
 983 06d6 596B     		ldr	r1, [r3, #52]
 984 06d8 7B6B     		ldr	r3, [r7, #52]
 985 06da 06EE903A 		fmsr	s13, r3	@ int
 986 06de F8EEE67A 		fsitos	s15, s13
 987 06e2 B7EEE76A 		fcvtds	d6, s15
 988 06e6 9FED1C7B 		fldd	d7, .L27
 989 06ea 26EE076B 		fmuld	d6, d6, d7
 990 06ee 9FED1C7B 		fldd	d7, .L27+8
 991 06f2 86EE077B 		fdivd	d7, d6, d7
 992 06f6 FDEEC76B 		ftosizd	s13, d7
 993 06fa 16EE903A 		fmrs	r3, s13	@ int
 994 06fe C3F1FF02 		rsb	r2, r3, #255
 265:../app/appXynthDemo.c ****                                                                            255 - (int) ((float) y *
 995              		.loc 1 265 0 discriminator 2
 996 0702 7B6B     		ldr	r3, [r7, #52]
 997 0704 07EE103A 		fmsr	s14, r3	@ int
 998 0708 F8EEC77A 		fsitos	s15, s14
 999 070c B7EEE76A 		fcvtds	d6, s15
 1000 0710 9FED117B 		fldd	d7, .L27
 1001 0714 26EE076B 		fmuld	d6, d6, d7
 1002 0718 9FED117B 		fldd	d7, .L27+8
 1003 071c 86EE077B 		fdivd	d7, d6, d7
 1004 0720 FDEEC76B 		ftosizd	s13, d7
 1005 0724 16EE903A 		fmrs	r3, s13	@ int
 264:../app/appXynthDemo.c ****     s_fillbox(window->surface, 2, y, w - 4, 1, s_rgbcolor(window->surface, 255 - (int) ((float) y *
 1006              		.loc 1 264 0 discriminator 2
 1007 0728 C3F1FF03 		rsb	r3, r3, #255
 1008 072c 0846     		mov	r0, r1
 1009 072e 1146     		mov	r1, r2
 1010 0730 1A46     		mov	r2, r3
 1011 0732 FF23     		movs	r3, #255
 1012 0734 FFF7FEFF 		bl	s_rgbcolor
 1013 0738 0346     		mov	r3, r0
 1014 073a 0122     		movs	r2, #1
 1015 073c 0092     		str	r2, [sp]
 1016 073e 0193     		str	r3, [sp, #4]
 1017 0740 2846     		mov	r0, r5
 1018 0742 0221     		movs	r1, #2
 1019 0744 7A6B     		ldr	r2, [r7, #52]
 1020 0746 2346     		mov	r3, r4
 1021 0748 FFF7FEFF 		bl	s_fillbox
 262:../app/appXynthDemo.c ****   for (y=2; y<h-2; y++)
 1022              		.loc 1 262 0 discriminator 2
 1023 074c 7B6B     		ldr	r3, [r7, #52]
 1024 074e 0133     		adds	r3, r3, #1
 1025 0750 7B63     		str	r3, [r7, #52]
 1026 0752 09E0     		b	.L28
 1027              	.L29:
 1028 0754 AFF30080 		.align	3
 1029              	.L27:
 1030 0758 00000000 		.word	0
 1031 075c 00E06F40 		.word	1081073664
 1032 0760 00000000 		.word	0
 1033 0764 00007940 		.word	1081671680
 1034              	.L28:
 1035              	.L24:
 262:../app/appXynthDemo.c ****   for (y=2; y<h-2; y++)
 1036              		.loc 1 262 0 is_stmt 0 discriminator 1
 1037 0768 7B6A     		ldr	r3, [r7, #36]
 1038 076a 9A1E     		subs	r2, r3, #2
 1039 076c 7B6B     		ldr	r3, [r7, #52]
 1040 076e 9A42     		cmp	r2, r3
 1041 0770 ACDC     		bgt	.L25
 266:../app/appXynthDemo.c **** 		                                                           255));
 267:../app/appXynthDemo.c ****    }
 268:../app/appXynthDemo.c **** 
 269:../app/appXynthDemo.c ****   /* Initialize img structs */
 270:../app/appXynthDemo.c ****   s_image_init(&img1);
 1042              		.loc 1 270 0 is_stmt 1
 1043 0772 07F10C03 		add	r3, r7, #12
 1044 0776 1846     		mov	r0, r3
 1045 0778 FFF7FEFF 		bl	s_image_init
 271:../app/appXynthDemo.c ****   s_image_img(file1, img1);
 1046              		.loc 1 271 0
 1047 077c FB68     		ldr	r3, [r7, #12]
 1048 077e 386B     		ldr	r0, [r7, #48]
 1049 0780 1946     		mov	r1, r3
 1050 0782 FFF7FEFF 		bl	s_image_img
 272:../app/appXynthDemo.c ****   s_image_init(&img2);
 1051              		.loc 1 272 0
 1052 0786 07F10803 		add	r3, r7, #8
 1053 078a 1846     		mov	r0, r3
 1054 078c FFF7FEFF 		bl	s_image_init
 273:../app/appXynthDemo.c ****   s_image_img(file2, img2);
 1055              		.loc 1 273 0
 1056 0790 BB68     		ldr	r3, [r7, #8]
 1057 0792 F86A     		ldr	r0, [r7, #44]
 1058 0794 1946     		mov	r1, r3
 1059 0796 FFF7FEFF 		bl	s_image_img
 274:../app/appXynthDemo.c **** 
 275:../app/appXynthDemo.c ****   /* Paste imgs to the surface */
 276:../app/appXynthDemo.c ****   s_putboxrgba(window->surface, 30 + img1->x, 20 + img1->y, img1->w, img1->h, img1->rgba);
 1060              		.loc 1 276 0
 1061 079a 7B69     		ldr	r3, [r7, #20]
 1062 079c 586B     		ldr	r0, [r3, #52]
 1063 079e FB68     		ldr	r3, [r7, #12]
 1064 07a0 5B68     		ldr	r3, [r3, #4]
 1065 07a2 03F11E01 		add	r1, r3, #30
 1066 07a6 FB68     		ldr	r3, [r7, #12]
 1067 07a8 9B68     		ldr	r3, [r3, #8]
 1068 07aa 03F11402 		add	r2, r3, #20
 1069 07ae FB68     		ldr	r3, [r7, #12]
 1070 07b0 DB68     		ldr	r3, [r3, #12]
 1071 07b2 FC68     		ldr	r4, [r7, #12]
 1072 07b4 2569     		ldr	r5, [r4, #16]
 1073 07b6 FC68     		ldr	r4, [r7, #12]
 1074 07b8 646A     		ldr	r4, [r4, #36]
 1075 07ba 0095     		str	r5, [sp]
 1076 07bc 0194     		str	r4, [sp, #4]
 1077 07be FFF7FEFF 		bl	s_putboxrgba
 277:../app/appXynthDemo.c ****   s_putboxrgba(window->surface, 40 + img2->x, 170 + img2->y, img2->w, img2->h, img2->rgba);
 1078              		.loc 1 277 0
 1079 07c2 7B69     		ldr	r3, [r7, #20]
 1080 07c4 586B     		ldr	r0, [r3, #52]
 1081 07c6 BB68     		ldr	r3, [r7, #8]
 1082 07c8 5B68     		ldr	r3, [r3, #4]
 1083 07ca 03F12801 		add	r1, r3, #40
 1084 07ce BB68     		ldr	r3, [r7, #8]
 1085 07d0 9B68     		ldr	r3, [r3, #8]
 1086 07d2 03F1AA02 		add	r2, r3, #170
 1087 07d6 BB68     		ldr	r3, [r7, #8]
 1088 07d8 DB68     		ldr	r3, [r3, #12]
 1089 07da BC68     		ldr	r4, [r7, #8]
 1090 07dc 2569     		ldr	r5, [r4, #16]
 1091 07de BC68     		ldr	r4, [r7, #8]
 1092 07e0 646A     		ldr	r4, [r4, #36]
 1093 07e2 0095     		str	r5, [sp]
 1094 07e4 0194     		str	r4, [sp, #4]
 1095 07e6 FFF7FEFF 		bl	s_putboxrgba
 278:../app/appXynthDemo.c **** 
 279:../app/appXynthDemo.c ****   /* Uninitialize img struct */
 280:../app/appXynthDemo.c ****   s_image_uninit(img1);
 1096              		.loc 1 280 0
 1097 07ea FB68     		ldr	r3, [r7, #12]
 1098 07ec 1846     		mov	r0, r3
 1099 07ee FFF7FEFF 		bl	s_image_uninit
 281:../app/appXynthDemo.c ****   s_image_uninit(img2);
 1100              		.loc 1 281 0
 1101 07f2 BB68     		ldr	r3, [r7, #8]
 1102 07f4 1846     		mov	r0, r3
 1103 07f6 FFF7FEFF 		bl	s_image_uninit
 282:../app/appXynthDemo.c **** 
 283:../app/appXynthDemo.c ****   /* Setup the fonts for the heading text */
 284:../app/appXynthDemo.c ****   s_font_init(&font, "arial.ttf");
 1104              		.loc 1 284 0
 1105 07fa 07F11C03 		add	r3, r7, #28
 1106 07fe 1846     		mov	r0, r3
 1107 0800 40F20001 		movw	r1, #:lower16:.LC20
 1108 0804 C0F20001 		movt	r1, #:upper16:.LC20
 1109 0808 FFF7FEFF 		bl	s_font_init
 285:../app/appXynthDemo.c ****   s_font_set_str(font, "Xynth LED-Demo");
 1110              		.loc 1 285 0
 1111 080c FB69     		ldr	r3, [r7, #28]
 1112 080e 1846     		mov	r0, r3
 1113 0810 40F20001 		movw	r1, #:lower16:.LC21
 1114 0814 C0F20001 		movt	r1, #:upper16:.LC21
 1115 0818 FFF7FEFF 		bl	s_font_set_str
 286:../app/appXynthDemo.c ****   s_font_set_size(font, 32);
 1116              		.loc 1 286 0
 1117 081c FB69     		ldr	r3, [r7, #28]
 1118 081e 1846     		mov	r0, r3
 1119 0820 2021     		movs	r1, #32
 1120 0822 FFF7FEFF 		bl	s_font_set_size
 287:../app/appXynthDemo.c ****   s_font_get_glyph(font);
 1121              		.loc 1 287 0
 1122 0826 FB69     		ldr	r3, [r7, #28]
 1123 0828 1846     		mov	r0, r3
 1124 082a FFF7FEFF 		bl	s_font_get_glyph
 288:../app/appXynthDemo.c ****   s_image_get_handler(font->glyph.img);
 1125              		.loc 1 288 0
 1126 082e FB69     		ldr	r3, [r7, #28]
 1127 0830 DB6B     		ldr	r3, [r3, #60]
 1128 0832 1846     		mov	r0, r3
 1129 0834 FFF7FEFF 		bl	s_image_get_handler
 289:../app/appXynthDemo.c ****   s_putboxrgba(window->surface, 165, 80, font->glyph.img->w, font->glyph.img->h, font->glyph.img->r
 1130              		.loc 1 289 0
 1131 0838 7B69     		ldr	r3, [r7, #20]
 1132 083a 5A6B     		ldr	r2, [r3, #52]
 1133 083c FB69     		ldr	r3, [r7, #28]
 1134 083e DB6B     		ldr	r3, [r3, #60]
 1135 0840 DB68     		ldr	r3, [r3, #12]
 1136 0842 F969     		ldr	r1, [r7, #28]
 1137 0844 C96B     		ldr	r1, [r1, #60]
 1138 0846 0869     		ldr	r0, [r1, #16]
 1139 0848 F969     		ldr	r1, [r7, #28]
 1140 084a C96B     		ldr	r1, [r1, #60]
 1141 084c 496A     		ldr	r1, [r1, #36]
 1142 084e 0090     		str	r0, [sp]
 1143 0850 0191     		str	r1, [sp, #4]
 1144 0852 1046     		mov	r0, r2
 1145 0854 A521     		movs	r1, #165
 1146 0856 5022     		movs	r2, #80
 1147 0858 FFF7FEFF 		bl	s_putboxrgba
 290:../app/appXynthDemo.c ****   s_fillbox(window->surface, 165, 80 + font->glyph.img->h + 2, font->glyph.img->w, 2, 0);
 1148              		.loc 1 290 0
 1149 085c 7B69     		ldr	r3, [r7, #20]
 1150 085e 596B     		ldr	r1, [r3, #52]
 1151 0860 FB69     		ldr	r3, [r7, #28]
 1152 0862 DB6B     		ldr	r3, [r3, #60]
 1153 0864 1B69     		ldr	r3, [r3, #16]
 1154 0866 03F15202 		add	r2, r3, #82
 1155 086a FB69     		ldr	r3, [r7, #28]
 1156 086c DB6B     		ldr	r3, [r3, #60]
 1157 086e DB68     		ldr	r3, [r3, #12]
 1158 0870 0220     		movs	r0, #2
 1159 0872 0090     		str	r0, [sp]
 1160 0874 0020     		movs	r0, #0
 1161 0876 0190     		str	r0, [sp, #4]
 1162 0878 0846     		mov	r0, r1
 1163 087a A521     		movs	r1, #165
 1164 087c FFF7FEFF 		bl	s_fillbox
 291:../app/appXynthDemo.c ****   s_font_uninit(font);
 1165              		.loc 1 291 0
 1166 0880 FB69     		ldr	r3, [r7, #28]
 1167 0882 1846     		mov	r0, r3
 1168 0884 FFF7FEFF 		bl	s_font_uninit
 292:../app/appXynthDemo.c **** 
 293:../app/appXynthDemo.c ****   /* Create the first button */
 294:../app/appXynthDemo.c ****   s_fillbox(window->surface, 158, 200, 70, 70, s_rgbcolor(window->surface, 0, 0, 0));
 1169              		.loc 1 294 0
 1170 0888 7B69     		ldr	r3, [r7, #20]
 1171 088a 5C6B     		ldr	r4, [r3, #52]
 1172 088c 7B69     		ldr	r3, [r7, #20]
 1173 088e 5B6B     		ldr	r3, [r3, #52]
 1174 0890 1846     		mov	r0, r3
 1175 0892 0021     		movs	r1, #0
 1176 0894 0022     		movs	r2, #0
 1177 0896 0023     		movs	r3, #0
 1178 0898 FFF7FEFF 		bl	s_rgbcolor
 1179 089c 0346     		mov	r3, r0
 1180 089e 4622     		movs	r2, #70
 1181 08a0 0092     		str	r2, [sp]
 1182 08a2 0193     		str	r3, [sp, #4]
 1183 08a4 2046     		mov	r0, r4
 1184 08a6 9E21     		movs	r1, #158
 1185 08a8 C822     		movs	r2, #200
 1186 08aa 4623     		movs	r3, #70
 1187 08ac FFF7FEFF 		bl	s_fillbox
 295:../app/appXynthDemo.c ****   s_fillbox(window->surface, 162, 204, 62, 62, s_rgbcolor(window->surface, 30, 255, 30));
 1188              		.loc 1 295 0
 1189 08b0 7B69     		ldr	r3, [r7, #20]
 1190 08b2 5C6B     		ldr	r4, [r3, #52]
 1191 08b4 7B69     		ldr	r3, [r7, #20]
 1192 08b6 5B6B     		ldr	r3, [r3, #52]
 1193 08b8 1846     		mov	r0, r3
 1194 08ba 1E21     		movs	r1, #30
 1195 08bc FF22     		movs	r2, #255
 1196 08be 1E23     		movs	r3, #30
 1197 08c0 FFF7FEFF 		bl	s_rgbcolor
 1198 08c4 0346     		mov	r3, r0
 1199 08c6 3E22     		movs	r2, #62
 1200 08c8 0092     		str	r2, [sp]
 1201 08ca 0193     		str	r3, [sp, #4]
 1202 08cc 2046     		mov	r0, r4
 1203 08ce A221     		movs	r1, #162
 1204 08d0 CC22     		movs	r2, #204
 1205 08d2 3E23     		movs	r3, #62
 1206 08d4 FFF7FEFF 		bl	s_fillbox
 296:../app/appXynthDemo.c **** 
 297:../app/appXynthDemo.c ****   /* Setup the fonts for the led off text */
 298:../app/appXynthDemo.c ****   s_font_init(&font, "arial.ttf");
 1207              		.loc 1 298 0
 1208 08d8 07F11C03 		add	r3, r7, #28
 1209 08dc 1846     		mov	r0, r3
 1210 08de 40F20001 		movw	r1, #:lower16:.LC20
 1211 08e2 C0F20001 		movt	r1, #:upper16:.LC20
 1212 08e6 FFF7FEFF 		bl	s_font_init
 299:../app/appXynthDemo.c ****   s_font_set_str(font, "LED 1");
 1213              		.loc 1 299 0
 1214 08ea FB69     		ldr	r3, [r7, #28]
 1215 08ec 1846     		mov	r0, r3
 1216 08ee 40F20001 		movw	r1, #:lower16:.LC22
 1217 08f2 C0F20001 		movt	r1, #:upper16:.LC22
 1218 08f6 FFF7FEFF 		bl	s_font_set_str
 300:../app/appXynthDemo.c ****   s_font_set_size(font, 20);
 1219              		.loc 1 300 0
 1220 08fa FB69     		ldr	r3, [r7, #28]
 1221 08fc 1846     		mov	r0, r3
 1222 08fe 1421     		movs	r1, #20
 1223 0900 FFF7FEFF 		bl	s_font_set_size
 301:../app/appXynthDemo.c ****   s_font_set_rgb(font, 255, 255, 0);
 1224              		.loc 1 301 0
 1225 0904 FB69     		ldr	r3, [r7, #28]
 1226 0906 1846     		mov	r0, r3
 1227 0908 FF21     		movs	r1, #255
 1228 090a FF22     		movs	r2, #255
 1229 090c 0023     		movs	r3, #0
 1230 090e FFF7FEFF 		bl	s_font_set_rgb
 302:../app/appXynthDemo.c ****   s_font_get_glyph(font);
 1231              		.loc 1 302 0
 1232 0912 FB69     		ldr	r3, [r7, #28]
 1233 0914 1846     		mov	r0, r3
 1234 0916 FFF7FEFF 		bl	s_font_get_glyph
 303:../app/appXynthDemo.c ****   s_image_get_handler(font->glyph.img);
 1235              		.loc 1 303 0
 1236 091a FB69     		ldr	r3, [r7, #28]
 1237 091c DB6B     		ldr	r3, [r3, #60]
 1238 091e 1846     		mov	r0, r3
 1239 0920 FFF7FEFF 		bl	s_image_get_handler
 304:../app/appXynthDemo.c ****   s_putboxrgba(window->surface, 166, 180, font->glyph.img->w, font->glyph.img->h, font->glyph.img->
 1240              		.loc 1 304 0
 1241 0924 7B69     		ldr	r3, [r7, #20]
 1242 0926 5A6B     		ldr	r2, [r3, #52]
 1243 0928 FB69     		ldr	r3, [r7, #28]
 1244 092a DB6B     		ldr	r3, [r3, #60]
 1245 092c DB68     		ldr	r3, [r3, #12]
 1246 092e F969     		ldr	r1, [r7, #28]
 1247 0930 C96B     		ldr	r1, [r1, #60]
 1248 0932 0869     		ldr	r0, [r1, #16]
 1249 0934 F969     		ldr	r1, [r7, #28]
 1250 0936 C96B     		ldr	r1, [r1, #60]
 1251 0938 496A     		ldr	r1, [r1, #36]
 1252 093a 0090     		str	r0, [sp]
 1253 093c 0191     		str	r1, [sp, #4]
 1254 093e 1046     		mov	r0, r2
 1255 0940 A621     		movs	r1, #166
 1256 0942 B422     		movs	r2, #180
 1257 0944 FFF7FEFF 		bl	s_putboxrgba
 305:../app/appXynthDemo.c ****   s_font_uninit(font);
 1258              		.loc 1 305 0
 1259 0948 FB69     		ldr	r3, [r7, #28]
 1260 094a 1846     		mov	r0, r3
 1261 094c FFF7FEFF 		bl	s_font_uninit
 306:../app/appXynthDemo.c **** 	
 307:../app/appXynthDemo.c ****   /* Install the mouse callback handler for the led_off button */
 308:../app/appXynthDemo.c ****   s_handler_init(&hndl);
 1262              		.loc 1 308 0
 1263 0950 07F11803 		add	r3, r7, #24
 1264 0954 1846     		mov	r0, r3
 1265 0956 FFF7FEFF 		bl	s_handler_init
 309:../app/appXynthDemo.c ****   hndl->type = MOUSE_HANDLER;
 1266              		.loc 1 309 0
 1267 095a BB69     		ldr	r3, [r7, #24]
 1268 095c 0122     		movs	r2, #1
 1269 095e 1A60     		str	r2, [r3]
 310:../app/appXynthDemo.c ****   hndl->mouse.x = 160;
 1270              		.loc 1 310 0
 1271 0960 BB69     		ldr	r3, [r7, #24]
 1272 0962 A022     		movs	r2, #160
 1273 0964 5A60     		str	r2, [r3, #4]
 311:../app/appXynthDemo.c ****   hndl->mouse.y = 200;
 1274              		.loc 1 311 0
 1275 0966 BB69     		ldr	r3, [r7, #24]
 1276 0968 C822     		movs	r2, #200
 1277 096a 9A60     		str	r2, [r3, #8]
 312:../app/appXynthDemo.c ****   hndl->mouse.w = 100;
 1278              		.loc 1 312 0
 1279 096c BB69     		ldr	r3, [r7, #24]
 1280 096e 6422     		movs	r2, #100
 1281 0970 DA60     		str	r2, [r3, #12]
 313:../app/appXynthDemo.c ****   hndl->mouse.h = 100;
 1282              		.loc 1 313 0
 1283 0972 BB69     		ldr	r3, [r7, #24]
 1284 0974 6422     		movs	r2, #100
 1285 0976 1A61     		str	r2, [r3, #16]
 314:../app/appXynthDemo.c ****   hndl->mouse.o = led1_toggle;
 1286              		.loc 1 314 0
 1287 0978 BA69     		ldr	r2, [r7, #24]
 1288 097a 40F20003 		movw	r3, #:lower16:led1_toggle
 1289 097e C0F20003 		movt	r3, #:upper16:led1_toggle
 1290 0982 5362     		str	r3, [r2, #36]
 315:../app/appXynthDemo.c ****   hndl->mouse.button = MOUSE_BUTTON_LEFT;
 1291              		.loc 1 315 0
 1292 0984 BB69     		ldr	r3, [r7, #24]
 1293 0986 0422     		movs	r2, #4
 1294 0988 5A61     		str	r2, [r3, #20]
 316:../app/appXynthDemo.c ****   s_handler_add(window, hndl);
 1295              		.loc 1 316 0
 1296 098a 7A69     		ldr	r2, [r7, #20]
 1297 098c BB69     		ldr	r3, [r7, #24]
 1298 098e 1046     		mov	r0, r2
 1299 0990 1946     		mov	r1, r3
 1300 0992 FFF7FEFF 		bl	s_handler_add
 317:../app/appXynthDemo.c **** 
 318:../app/appXynthDemo.c ****   /* Create the second button */
 319:../app/appXynthDemo.c ****   s_fillbox(window->surface, 380, 200, 70, 70, s_rgbcolor(window->surface, 0, 0, 0));
 1301              		.loc 1 319 0
 1302 0996 7B69     		ldr	r3, [r7, #20]
 1303 0998 5C6B     		ldr	r4, [r3, #52]
 1304 099a 7B69     		ldr	r3, [r7, #20]
 1305 099c 5B6B     		ldr	r3, [r3, #52]
 1306 099e 1846     		mov	r0, r3
 1307 09a0 0021     		movs	r1, #0
 1308 09a2 0022     		movs	r2, #0
 1309 09a4 0023     		movs	r3, #0
 1310 09a6 FFF7FEFF 		bl	s_rgbcolor
 1311 09aa 0346     		mov	r3, r0
 1312 09ac 4622     		movs	r2, #70
 1313 09ae 0092     		str	r2, [sp]
 1314 09b0 0193     		str	r3, [sp, #4]
 1315 09b2 2046     		mov	r0, r4
 1316 09b4 4FF4BE71 		mov	r1, #380
 1317 09b8 C822     		movs	r2, #200
 1318 09ba 4623     		movs	r3, #70
 1319 09bc FFF7FEFF 		bl	s_fillbox
 320:../app/appXynthDemo.c ****   s_fillbox(window->surface, 384, 204, 62, 62, s_rgbcolor(window->surface, 30, 255, 30));
 1320              		.loc 1 320 0
 1321 09c0 7B69     		ldr	r3, [r7, #20]
 1322 09c2 5C6B     		ldr	r4, [r3, #52]
 1323 09c4 7B69     		ldr	r3, [r7, #20]
 1324 09c6 5B6B     		ldr	r3, [r3, #52]
 1325 09c8 1846     		mov	r0, r3
 1326 09ca 1E21     		movs	r1, #30
 1327 09cc FF22     		movs	r2, #255
 1328 09ce 1E23     		movs	r3, #30
 1329 09d0 FFF7FEFF 		bl	s_rgbcolor
 1330 09d4 0346     		mov	r3, r0
 1331 09d6 3E22     		movs	r2, #62
 1332 09d8 0092     		str	r2, [sp]
 1333 09da 0193     		str	r3, [sp, #4]
 1334 09dc 2046     		mov	r0, r4
 1335 09de 4FF4C071 		mov	r1, #384
 1336 09e2 CC22     		movs	r2, #204
 1337 09e4 3E23     		movs	r3, #62
 1338 09e6 FFF7FEFF 		bl	s_fillbox
 321:../app/appXynthDemo.c **** 
 322:../app/appXynthDemo.c ****   /* Setup the fonts for the led_on text */
 323:../app/appXynthDemo.c ****   s_font_init(&font, "arial.ttf");
 1339              		.loc 1 323 0
 1340 09ea 07F11C03 		add	r3, r7, #28
 1341 09ee 1846     		mov	r0, r3
 1342 09f0 40F20001 		movw	r1, #:lower16:.LC20
 1343 09f4 C0F20001 		movt	r1, #:upper16:.LC20
 1344 09f8 FFF7FEFF 		bl	s_font_init
 324:../app/appXynthDemo.c ****   s_font_set_str(font, "LED 2");
 1345              		.loc 1 324 0
 1346 09fc FB69     		ldr	r3, [r7, #28]
 1347 09fe 1846     		mov	r0, r3
 1348 0a00 40F20001 		movw	r1, #:lower16:.LC23
 1349 0a04 C0F20001 		movt	r1, #:upper16:.LC23
 1350 0a08 FFF7FEFF 		bl	s_font_set_str
 325:../app/appXynthDemo.c ****   s_font_set_size(font, 20);
 1351              		.loc 1 325 0
 1352 0a0c FB69     		ldr	r3, [r7, #28]
 1353 0a0e 1846     		mov	r0, r3
 1354 0a10 1421     		movs	r1, #20
 1355 0a12 FFF7FEFF 		bl	s_font_set_size
 326:../app/appXynthDemo.c ****   s_font_set_rgb(font, 255, 255, 0);
 1356              		.loc 1 326 0
 1357 0a16 FB69     		ldr	r3, [r7, #28]
 1358 0a18 1846     		mov	r0, r3
 1359 0a1a FF21     		movs	r1, #255
 1360 0a1c FF22     		movs	r2, #255
 1361 0a1e 0023     		movs	r3, #0
 1362 0a20 FFF7FEFF 		bl	s_font_set_rgb
 327:../app/appXynthDemo.c ****   s_font_get_glyph(font);
 1363              		.loc 1 327 0
 1364 0a24 FB69     		ldr	r3, [r7, #28]
 1365 0a26 1846     		mov	r0, r3
 1366 0a28 FFF7FEFF 		bl	s_font_get_glyph
 328:../app/appXynthDemo.c ****   s_image_get_handler(font->glyph.img);
 1367              		.loc 1 328 0
 1368 0a2c FB69     		ldr	r3, [r7, #28]
 1369 0a2e DB6B     		ldr	r3, [r3, #60]
 1370 0a30 1846     		mov	r0, r3
 1371 0a32 FFF7FEFF 		bl	s_image_get_handler
 329:../app/appXynthDemo.c ****   s_putboxrgba(window->surface, 390, 180, font->glyph.img->w, font->glyph.img->h, font->glyph.img->
 1372              		.loc 1 329 0
 1373 0a36 7B69     		ldr	r3, [r7, #20]
 1374 0a38 5A6B     		ldr	r2, [r3, #52]
 1375 0a3a FB69     		ldr	r3, [r7, #28]
 1376 0a3c DB6B     		ldr	r3, [r3, #60]
 1377 0a3e DB68     		ldr	r3, [r3, #12]
 1378 0a40 F969     		ldr	r1, [r7, #28]
 1379 0a42 C96B     		ldr	r1, [r1, #60]
 1380 0a44 0869     		ldr	r0, [r1, #16]
 1381 0a46 F969     		ldr	r1, [r7, #28]
 1382 0a48 C96B     		ldr	r1, [r1, #60]
 1383 0a4a 496A     		ldr	r1, [r1, #36]
 1384 0a4c 0090     		str	r0, [sp]
 1385 0a4e 0191     		str	r1, [sp, #4]
 1386 0a50 1046     		mov	r0, r2
 1387 0a52 4FF4C371 		mov	r1, #390
 1388 0a56 B422     		movs	r2, #180
 1389 0a58 FFF7FEFF 		bl	s_putboxrgba
 330:../app/appXynthDemo.c ****   s_font_uninit(font);
 1390              		.loc 1 330 0
 1391 0a5c FB69     		ldr	r3, [r7, #28]
 1392 0a5e 1846     		mov	r0, r3
 1393 0a60 FFF7FEFF 		bl	s_font_uninit
 331:../app/appXynthDemo.c **** 
 332:../app/appXynthDemo.c ****   /* Install the mouse callback handler for the led_on button */
 333:../app/appXynthDemo.c ****   s_handler_init(&hndl);
 1394              		.loc 1 333 0
 1395 0a64 07F11803 		add	r3, r7, #24
 1396 0a68 1846     		mov	r0, r3
 1397 0a6a FFF7FEFF 		bl	s_handler_init
 334:../app/appXynthDemo.c ****   hndl->type = MOUSE_HANDLER;
 1398              		.loc 1 334 0
 1399 0a6e BB69     		ldr	r3, [r7, #24]
 1400 0a70 0122     		movs	r2, #1
 1401 0a72 1A60     		str	r2, [r3]
 335:../app/appXynthDemo.c ****   hndl->mouse.x = 380;
 1402              		.loc 1 335 0
 1403 0a74 BB69     		ldr	r3, [r7, #24]
 1404 0a76 4FF4BE72 		mov	r2, #380
 1405 0a7a 5A60     		str	r2, [r3, #4]
 336:../app/appXynthDemo.c ****   hndl->mouse.y = 200;
 1406              		.loc 1 336 0
 1407 0a7c BB69     		ldr	r3, [r7, #24]
 1408 0a7e C822     		movs	r2, #200
 1409 0a80 9A60     		str	r2, [r3, #8]
 337:../app/appXynthDemo.c ****   hndl->mouse.w = 100;
 1410              		.loc 1 337 0
 1411 0a82 BB69     		ldr	r3, [r7, #24]
 1412 0a84 6422     		movs	r2, #100
 1413 0a86 DA60     		str	r2, [r3, #12]
 338:../app/appXynthDemo.c ****   hndl->mouse.h = 100;
 1414              		.loc 1 338 0
 1415 0a88 BB69     		ldr	r3, [r7, #24]
 1416 0a8a 6422     		movs	r2, #100
 1417 0a8c 1A61     		str	r2, [r3, #16]
 339:../app/appXynthDemo.c ****   hndl->mouse.o = led2_toggle;
 1418              		.loc 1 339 0
 1419 0a8e BA69     		ldr	r2, [r7, #24]
 1420 0a90 40F20003 		movw	r3, #:lower16:led2_toggle
 1421 0a94 C0F20003 		movt	r3, #:upper16:led2_toggle
 1422 0a98 5362     		str	r3, [r2, #36]
 340:../app/appXynthDemo.c ****   hndl->mouse.button = MOUSE_BUTTON_LEFT;
 1423              		.loc 1 340 0
 1424 0a9a BB69     		ldr	r3, [r7, #24]
 1425 0a9c 0422     		movs	r2, #4
 1426 0a9e 5A61     		str	r2, [r3, #20]
 341:../app/appXynthDemo.c ****   s_handler_add(window, hndl);
 1427              		.loc 1 341 0
 1428 0aa0 7A69     		ldr	r2, [r7, #20]
 1429 0aa2 BB69     		ldr	r3, [r7, #24]
 1430 0aa4 1046     		mov	r0, r2
 1431 0aa6 1946     		mov	r1, r3
 1432 0aa8 FFF7FEFF 		bl	s_handler_add
 342:../app/appXynthDemo.c **** 
 343:../app/appXynthDemo.c ****   /* Setup a timer handler */
 344:../app/appXynthDemo.c ****   s_timer_init(&timer);
 1433              		.loc 1 344 0
 1434 0aac 07F11003 		add	r3, r7, #16
 1435 0ab0 1846     		mov	r0, r3
 1436 0ab2 FFF7FEFF 		bl	s_timer_init
 345:../app/appXynthDemo.c ****   timer->timeval = 500;
 1437              		.loc 1 345 0
 1438 0ab6 3969     		ldr	r1, [r7, #16]
 1439 0ab8 4FF4FA72 		mov	r2, #500
 1440 0abc 4FF00003 		mov	r3, #0
 1441 0ac0 C1E90023 		strd	r2, [r1]
 346:../app/appXynthDemo.c ****   timer->cb = timer0_handler;
 1442              		.loc 1 346 0
 1443 0ac4 3A69     		ldr	r2, [r7, #16]
 1444 0ac6 40F20003 		movw	r3, #:lower16:timer0_handler
 1445 0aca C0F20003 		movt	r3, #:upper16:timer0_handler
 1446 0ace 1361     		str	r3, [r2, #16]
 347:../app/appXynthDemo.c ****   s_timer_add(window, timer);
 1447              		.loc 1 347 0
 1448 0ad0 7A69     		ldr	r2, [r7, #20]
 1449 0ad2 3B69     		ldr	r3, [r7, #16]
 1450 0ad4 1046     		mov	r0, r2
 1451 0ad6 1946     		mov	r1, r3
 1452 0ad8 FFF7FEFF 		bl	s_timer_add
 348:../app/appXynthDemo.c **** 
 349:../app/appXynthDemo.c ****   /* Show the window on the screen */
 350:../app/appXynthDemo.c ****   s_window_show(window);
 1453              		.loc 1 350 0
 1454 0adc 7B69     		ldr	r3, [r7, #20]
 1455 0ade 1846     		mov	r0, r3
 1456 0ae0 FFF7FEFF 		bl	s_window_show
 351:../app/appXynthDemo.c ****   s_window_main(window);
 1457              		.loc 1 351 0
 1458 0ae4 7B69     		ldr	r3, [r7, #20]
 1459 0ae6 1846     		mov	r0, r3
 1460 0ae8 FFF7FEFF 		bl	s_window_main
 352:../app/appXynthDemo.c **** 
 353:../app/appXynthDemo.c ****   return 0;
 1461              		.loc 1 353 0
 1462 0aec 0023     		movs	r3, #0
 354:../app/appXynthDemo.c ****  }
 1463              		.loc 1 354 0
 1464 0aee 1846     		mov	r0, r3
 1465 0af0 3837     		adds	r7, r7, #56
 1466 0af2 BD46     		mov	sp, r7
 1467              		@ sp needed
 1468 0af4 B0BD     		pop	{r4, r5, r7, pc}
 1469              		.cfi_endproc
 1470              	.LFE7:
 1472              		.local	on.9051
 1473              		.comm	on.9051,1,1
 1474              		.local	on.9057
 1475              		.comm	on.9057,1,1
 1476              		.local	toggleFlag.9062
 1477              		.comm	toggleFlag.9062,1,1
 1478              	.Letext0:
 1479              		.file 2 "/opt/embedded/sitara/rootfs/usr/local/include/xynth.h"